(dp1
S'username'
p2
(dp3
S'type'
p4
S'string'
p5
sS'sortable'
p6
I4
sS'sql'
p7
S'CHAR(512)'
p8
ssS'name'
p9
(dp10
g4
g5
sg6
I2
sg7
S'CHAR(32)'
p11
ssS'dob'
p12
(dp13
S'sortable'
p14
L3L
sS'type'
p15
S'date'
p16
sS'sql'
p17
S'DATE'
p18
ssS'password'
p19
(dp20
g4
S'password'
p21
sg6
I5
sg7
S'CHAR(512)'
p22
ssS'email'
p23
(dp24
g4
g5
sg6
I3
sg7
S'CHAR(512) UNIQUE'
p25
ssS'id'
p26
(dp27
g4
S'id'
p28
sg6
I1
sg7
S'INTEGER PRIMARY KEY AUTOINCREMENT'
p29
ss.