(dp1
S'output'
p2
S"<type 'exceptions.IndexError'> list index out of range"
p3
sS'layer'
p4
S'C:\\Users\\avjain\\Downloads\\web2py\\applications\\Golf_2\\views\\default/settings.html'
p5
sS'code'
p6
S'response.write(\'<!DOCTYPE html PUBLIC "-//W3C//DTD XHTML 1.0 Transitional//EN" "http://www.w3.org/TR/xhtml1/DTD/xhtml1-transitional.dtd">\\r\\n\\r\\n<html xmlns="http://www.w3.org/1999/xhtml" xml:lang="en">\\r\\n  <head>\\r\\n    <title>Web site</title>\\r\\n    <meta http-equiv="Content-Type" content="text/html; charset=utf-8" />\\r\\n    <meta name="title" content="Web site" />\\r\\n    <meta name="description" content="Site description here" />\\r\\n    <meta name="keywords" content="keywords here" />\\r\\n    <meta name="language" content="en" />\\r\\n    <meta name="subject" content="Site subject here" />\\r\\n    <meta name="robots" content="All" />\\r\\n    <meta name="copyright" content="Your company" />\\r\\n    <meta name="abstract" content="Site description here" />\\r\\n    <meta name="MSSmartTagsPreventParsing" content="true" />\\r\\n    <link id="theme" rel="stylesheet" type="text/css" href=\', escape=False)\nresponse.write(URL(r=request, c=\'static\', f="css/style.css"))\nresponse.write(\' title="theme" />    \\r\\n    <script src="\', escape=False)\nresponse.write(URL(\'static\',\'js/reserve.js\'))\nresponse.write(\'"></script>\\r\\n    <script src="\', escape=False)\nresponse.write(URL(\'static\',\'js/datetimepicker.js\'))\nresponse.write(\'"></script>     \\r\\n    <script src="\', escape=False)\nresponse.write(URL(\'static\',\'jquery.js\'))\nresponse.write(\'"></script>       \\r\\n    <script type="text/javascript" src="http://ajax.googleapis.com/ajax/libs/jquery/1.4.4/jquery.min.js"></script>\\r\\n    <!--script src=\', escape=False)\nresponse.write(URL(r=request, c=\'static\', f="js/datetimepicker.js"))\nresponse.write(\' type="text/javascript" /-->\\r\\n    <style type="text/css">\\r\\n        #submit {\\r\\n            background: #EFFF98;\\r\\n            border: 0px;\\r\\n            color: black;\\r\\n            -webkit-border-radius: 0px;\\r\\n            width: 95px;\\r\\n            height: 30px;\\r\\n            font-size: 20px;\\r\\n        }\\r\\n    </style>\\r\\n  </head>\\r\\n  <body> \\r\\n    <div id="wrapper"> \\r\\n      <div id="bg"> \\r\\n        <div id="header"></div>  \\r\\n        <div id="page"> \\r\\n          <div id="container"> \\r\\n            <!-- banner -->  \\r\\n            <div id="banner"></div>  \\r\\n            <!-- end banner -->  \\r\\n            <!--  content -->  \\r\\n            <div id="content"> \\r\\n              <div id="left"> \\r\\n                <div id="sidebar"> \\r\\n                  <ul class="vmenu">\\r\\n                    <li>\\r\\n                      <a href="#" shape="rect">Home</a>\\r\\n                    </li>\\r\\n                    \', escape=False)\nif session.login:\n    response.write(\'\\r\\n                        <li>\\r\\n                            Hi, \', escape=False)\n    response.write(session.username)\n    response.write(\'\\r\\n                        </li>                            \\r\\n                        <li>\\r\\n                            <a href=\', escape=False)\n    response.write(URL(\'logout\'))\n    response.write(\' shape="rect">Logout</a>\\r\\n                        </li>\\r\\n                    \', escape=False)\nelse:\n    response.write(\'\\r\\n                        <li>\\r\\n                              <a href=\', escape=False)\n    response.write(URL(\'login\'))\n    response.write(\' shape="rect">Login</a>\\r\\n                        </li>                   \\r\\n                        <li>\\r\\n                            <a href=\', escape=False)\n    response.write(URL(\'register\'))\n    response.write(\' shape="rect">Register</a>\\r\\n                        </li>\\r\\n                    \', escape=False)\n    pass\nresponse.write(\'\\r\\n                    <li>\\r\\n                      <a href="settings.html" shape="rect">Settings</a>\\r\\n                    </li>\\r\\n                    <li>\\r\\n                      <a href="#" shape="rect">Services</a>\\r\\n                    </li>\\r\\n                    <li>\\r\\n                      <a href="#" shape="rect">News</a>\\r\\n                    </li>\\r\\n                    <li>\\r\\n                      <a href="#" shape="rect">About us</a>\\r\\n                    </li>\\r\\n                    <li>\\r\\n                      <a href="#" shape="rect">Support</a>\\r\\n                    </li>\\r\\n                    <li>\\r\\n                      <a href="#" shape="rect">Testimonials</a>\\r\\n                    </li>\\r\\n                    <li>\\r\\n                      <a href="#" shape="rect">Site map</a>\\r\\n                    </li>\\r\\n                    <li>\\r\\n                      <a href="#" shape="rect">Contact us</a>\\r\\n                    </li>\\r\\n                  </ul> \\r\\n                </div> \\r\\n              </div>  \\r\\n              <div id="center"> \\r\\n                <div id="welcome"> \\r\\n                  <h3 style="text-align:center">Customize your notification settings</h3><br><br>\\r\\n                  <div>\\r\\n                      <form name="settingsForm" method="post">\\r\\n                          \', escape=False)\nresponse.write(setting[0])\nresponse.write(\'\\r\\n                          <input type="checkbox" name="notifcation" value="True">Booking Notification</input><br />\\r\\n                          <input type="checkbox" name="notifcation">Offers Notification</input><br />\\r\\n                          <input type="checkbox" name="notifcation">Sms Notification</input><br />\\r\\n                          <input type="checkbox" name="notifcation">News Letters:</input><br /><br />\\r\\n                          <input type="submit" name="submit" value="Done" title="click to save settings" />                                                                              \\r\\n                      </form>\\r\\n                  </div>\\r\\n                 \\r\\n                  <!--p>This template is free. You are free to use it, share it, redistribute it, modify it in any way you want as long as you \\r\\n                    <strong>keep a link back to doTemplate Website</strong> in the footer. You can remove this link by making a $10 \\r\\n                    <a href="http://www.dotemplate.com/dt/index.jsp#donate" target="_blank" shape="rect">donation</a>.\\r\\n                  </p>  \\r\\n                  <h1>Title 1</h1>  \\r\\n                  <p>Lorem ipsum dolor sit amet, consectetuer adipiscing elit. Sed non risus. Suspendisse lectus tortor, dignissim sit amet, adipiscing nec, ultricies sed, dolor. Cras elementum ultrices diam. Maecenas ligula massa, varius a, semper congue, euismod non, mi.</p -->  \\r\\n                  <div> \\r\\n                    <!--img src=\', escape=False)\nresponse.write(URL(r=request,c=\'static\',f="images/flower-1.jpg"))\nresponse.write(\' style="float:right;margin:0 0 0 15px;padding:5px;border:1px solid #444" />  \\r\\n                    <p>Sed ut perspiciatis unde omnis iste natus error sit voluptatem accusantium doloremque laudantium, totam rem aperiam, eaque ipsa quae ab illo inventore veritatis et quasi architecto beatae vitae dicta sunt explicabo. Nemo enim ipsam voluptatem quia voluptas sit aspernatur aut odit aut fugit, sed quia consequuntur magni dolores eos qui ratione voluptatem sequi nesciunt. Lorem ipsum dolor sit amet, consectetuer adipiscing elit. Sed non risus. Suspendisse lectus tortor, dignissim sit amet, adipiscing nec, ultricies sed, dolor.</p> \\r\\n                  </div>  \\r\\n                  <h2>Title 2</h2>  \\r\\n                  <p>Lorem ipsum dolor sit amet, consectetuer adipiscing elit. Sed non risus. Suspendisse lectus tortor, dignissim sit amet, adipiscing nec, ultricies sed, dolor. Cras elementum ultrices diam. Maecenas ligula massa, varius a, semper congue, euismod non, mi.</p>  \\r\\n                  <h3>Title 3</h3>  \\r\\n                  <p>Lorem ipsum dolor sit amet, consectetuer adipiscing elit. Sed non risus. Suspendisse lectus tortor, dignissim sit amet, adipiscing nec, ultricies sed, dolor. Cras elementum ultrices diam. Maecenas ligula massa, varius a, semper congue, euismod non, mi.</p -->  \\r\\n                  <p style="clear:both" /> \\r\\n                </div> \\r\\n              </div>  \\r\\n              <div style="clear:both;height:40px"></div> \\r\\n            </div>  \\r\\n            <!-- end content --> \\r\\n          </div>  \\r\\n          <!-- end container --> \\r\\n        </div>  \\r\\n        <div id="footerWrapper"> \\r\\n          <div id="footer"> \\r\\n            <p style="padding-top:10px;"> \\r\\n              <a href="#" shape="rect">Home</a> | \\r\\n              <a href="#" shape="rect">Products</a> | \\r\\n              <a href="#" shape="rect">Services</a> | \\r\\n              <a href="#" shape="rect">News</a> | \\r\\n              <a href="#" shape="rect">About</a> \\r\\n            </p>  \\r\\n            <p> \\r\\n              <!-- \\r\\nDO NOT REMOVE OR MODIFY THE FOOTER LINK BELOW.\\r\\nIf you want to remove this link please make a 10 dollars donation at www.dotemplate.com\\r\\n-->  \\r\\n              <a href="http://www.dotemplate.com" shape="rect">Templates</a> maker\\r\\n            </p> \\r\\n          </div> \\r\\n        </div> \\r\\n      </div> \\r\\n    </div> \\r\\n  </body>\\r\\n</html>\\r\\n\', escape=False)'
p7
sS'snapshot'
p8
(dp9
S'exception'
p10
(dp11
S'__hash__'
p12
S"<method-wrapper '__hash__' of exceptions.IndexError object at 0x0601CFA8>"
p13
sS'__setattr__'
p14
S"<method-wrapper '__setattr__' of exceptions.IndexError object at 0x0601CFA8>"
p15
sS'__reduce_ex__'
p16
S'<built-in method __reduce_ex__ of exceptions.IndexError object at 0x0601CFA8>'
p17
sS'__getslice__'
p18
S"<method-wrapper '__getslice__' of exceptions.IndexError object at 0x0601CFA8>"
p19
sS'__getitem__'
p20
S"<method-wrapper '__getitem__' of exceptions.IndexError object at 0x0601CFA8>"
p21
sS'__setstate__'
p22
S'<built-in method __setstate__ of exceptions.IndexError object at 0x0601CFA8>'
p23
sS'__reduce__'
p24
S'<built-in method __reduce__ of exceptions.IndexError object at 0x0601CFA8>'
p25
sS'__str__'
p26
S"<method-wrapper '__str__' of exceptions.IndexError object at 0x0601CFA8>"
p27
sS'args'
p28
S"('list index out of range',)"
p29
sS'__getattribute__'
p30
S"<method-wrapper '__getattribute__' of exceptions.IndexError object at 0x0601CFA8>"
p31
sS'__class__'
p32
S"<type 'exceptions.IndexError'>"
p33
sS'__delattr__'
p34
S"<method-wrapper '__delattr__' of exceptions.IndexError object at 0x0601CFA8>"
p35
sS'__repr__'
p36
S"<method-wrapper '__repr__' of exceptions.IndexError object at 0x0601CFA8>"
p37
sS'__dict__'
p38
S'{}'
p39
sS'__doc__'
p40
S"'Sequence index out of range.'"
p41
sS'__init__'
p42
S"<method-wrapper '__init__' of exceptions.IndexError object at 0x0601CFA8>"
p43
sS'__new__'
p44
S'<built-in method __new__ of type object at 0x1E1CDEF0>'
p45
ssS'evalue'
p46
S'list index out of range'
p47
sS'request'
p48
ccopy_reg
_reconstructor
p49
(cgluon.html
BEAUTIFY
p50
c__builtin__
object
p51
NtRp52
(dp53
S'attributes'
p54
(dp55
sS'components'
p56
(lp57
g49
(cgluon.html
TABLE
p58
g51
NtRp59
(dp60
g54
(dp61
S'level'
p62
I5
ssS'parent'
p63
Nsg56
(lp64
g49
(cgluon.html
TR
p65
g51
NtRp66
(dp67
g54
(dp68
sg63
g59
sg56
(lp69
g49
(cgluon.html
TD
p70
g51
NtRp71
(dp72
g54
(dp73
S'_style'
p74
S'font-weight:bold;vertical-align:top'
p75
ssg63
g66
sg56
(lp76
S'ajax'
p77
asbag49
(g70
g51
NtRp78
(dp79
g54
(dp80
S'_valign'
p81
S'top'
p82
ssg63
g66
sg56
(lp83
S':'
asbag49
(g70
g51
NtRp84
(dp85
g54
(dp86
sg63
g66
sg56
(lp87
g49
(g50
g51
NtRp88
(dp89
g54
(dp90
g62
I5
ssg63
g84
sg56
(lp91
S'False'
p92
asbasbasbag49
(g65
g51
NtRp93
(dp94
g54
(dp95
sg63
g59
sg56
(lp96
g49
(g70
g51
NtRp97
(dp98
g54
(dp99
g74
g75
ssg63
g93
sg56
(lp100
S'application'
p101
asbag49
(g70
g51
NtRp102
(dp103
g54
(dp104
g81
g82
ssg63
g93
sg56
(lp105
S':'
asbag49
(g70
g51
NtRp106
(dp107
g54
(dp108
sg63
g93
sg56
(lp109
g49
(g50
g51
NtRp110
(dp111
g54
(dp112
g62
I5
ssg63
g106
sg56
(lp113
S'Golf_2'
p114
asbasbasbag49
(g65
g51
NtRp115
(dp116
g54
(dp117
sg63
g59
sg56
(lp118
g49
(g70
g51
NtRp119
(dp120
g54
(dp121
g74
g75
ssg63
g115
sg56
(lp122
g28
asbag49
(g70
g51
NtRp123
(dp124
g54
(dp125
g81
g82
ssg63
g115
sg56
(lp126
S':'
asbag49
(g70
g51
NtRp127
(dp128
g54
(dp129
sg63
g115
sg56
(lp130
g49
(g50
g51
NtRp131
(dp132
g54
(dp133
g62
I5
ssg63
g127
sg56
(lp134
g49
(g58
g51
NtRp135
(dp136
g54
(dp137
g62
I4
ssg63
Nsg56
(lp138
sbasbasbasbag49
(g65
g51
NtRp139
(dp140
g54
(dp141
sg63
g59
sg56
(lp142
g49
(g70
g51
NtRp143
(dp144
g54
(dp145
g74
g75
ssg63
g139
sg56
(lp146
S'body'
p147
asbag49
(g70
g51
NtRp148
(dp149
g54
(dp150
g81
g82
ssg63
g139
sg56
(lp151
S':'
asbag49
(g70
g51
NtRp152
(dp153
g54
(dp154
sg63
g139
sg56
(lp155
g49
(g50
g51
NtRp156
(dp157
g54
(dp158
g62
I5
ssg63
g152
sg56
(lp159
S'<cStringIO.StringO object at 0x05E667C0>'
p160
asbasbasbag49
(g65
g51
NtRp161
(dp162
g54
(dp163
sg63
g59
sg56
(lp164
g49
(g70
g51
NtRp165
(dp166
g54
(dp167
g74
g75
ssg63
g161
sg56
(lp168
S'client'
p169
asbag49
(g70
g51
NtRp170
(dp171
g54
(dp172
g81
g82
ssg63
g161
sg56
(lp173
S':'
asbag49
(g70
g51
NtRp174
(dp175
g54
(dp176
sg63
g161
sg56
(lp177
g49
(g50
g51
NtRp178
(dp179
g54
(dp180
g62
I5
ssg63
g174
sg56
(lp181
S'127.0.0.1'
p182
asbasbasbag49
(g65
g51
NtRp183
(dp184
g54
(dp185
sg63
g59
sg56
(lp186
g49
(g70
g51
NtRp187
(dp188
g54
(dp189
g74
g75
ssg63
g183
sg56
(lp190
S'controller'
p191
asbag49
(g70
g51
NtRp192
(dp193
g54
(dp194
g81
g82
ssg63
g183
sg56
(lp195
S':'
asbag49
(g70
g51
NtRp196
(dp197
g54
(dp198
sg63
g183
sg56
(lp199
g49
(g50
g51
NtRp200
(dp201
g54
(dp202
g62
I5
ssg63
g196
sg56
(lp203
S'default'
p204
asbasbasbag49
(g65
g51
NtRp205
(dp206
g54
(dp207
sg63
g59
sg56
(lp208
g49
(g70
g51
NtRp209
(dp210
g54
(dp211
g74
g75
ssg63
g205
sg56
(lp212
S'cookies'
p213
asbag49
(g70
g51
NtRp214
(dp215
g54
(dp216
g81
g82
ssg63
g205
sg56
(lp217
S':'
asbag49
(g70
g51
NtRp218
(dp219
g54
(dp220
sg63
g205
sg56
(lp221
g49
(g50
g51
NtRp222
(dp223
g54
(dp224
g62
I5
ssg63
g218
sg56
(lp225
g49
(g58
g51
NtRp226
(dp227
g54
(dp228
g62
I4
ssg63
Nsg56
(lp229
g49
(g65
g51
NtRp230
(dp231
g54
(dp232
sg63
g226
sg56
(lp233
g49
(g70
g51
NtRp234
(dp235
g54
(dp236
g74
g75
ssg63
g230
sg56
(lp237
S'session_id_admin'
p238
asbag49
(g70
g51
NtRp239
(dp240
g54
(dp241
g81
g82
ssg63
g230
sg56
(lp242
S':'
asbag49
(g70
g51
NtRp243
(dp244
g54
(dp245
sg63
g230
sg56
(lp246
g49
(g50
g51
NtRp247
(dp248
g54
(dp249
g62
I4
ssg63
g243
sg56
(lp250
g49
(g58
g51
NtRp251
(dp252
g54
(dp253
g62
I3
ssg63
Nsg56
(lp254
g49
(g65
g51
NtRp255
(dp256
g54
(dp257
sg63
g251
sg56
(lp258
g49
(g70
g51
NtRp259
(dp260
g54
(dp261
g74
g75
ssg63
g255
sg56
(lp262
S'comment'
p263
asbag49
(g70
g51
NtRp264
(dp265
g54
(dp266
g81
g82
ssg63
g255
sg56
(lp267
S':'
asbag49
(g70
g51
NtRp268
(dp269
g54
(dp270
sg63
g255
sg56
(lp271
g49
(g50
g51
NtRp272
(dp273
g54
(dp274
g62
I3
ssg63
g268
sg56
(lp275
S''
asbasbasbag49
(g65
g51
NtRp276
(dp277
g54
(dp278
sg63
g251
sg56
(lp279
g49
(g70
g51
NtRp280
(dp281
g54
(dp282
g74
g75
ssg63
g276
sg56
(lp283
S'domain'
p284
asbag49
(g70
g51
NtRp285
(dp286
g54
(dp287
g81
g82
ssg63
g276
sg56
(lp288
S':'
asbag49
(g70
g51
NtRp289
(dp290
g54
(dp291
sg63
g276
sg56
(lp292
g49
(g50
g51
NtRp293
(dp294
g54
(dp295
g62
I3
ssg63
g289
sg56
(lp296
S''
asbasbasbag49
(g65
g51
NtRp297
(dp298
g54
(dp299
sg63
g251
sg56
(lp300
g49
(g70
g51
NtRp301
(dp302
g54
(dp303
g74
g75
ssg63
g297
sg56
(lp304
S'expires'
p305
asbag49
(g70
g51
NtRp306
(dp307
g54
(dp308
g81
g82
ssg63
g297
sg56
(lp309
S':'
asbag49
(g70
g51
NtRp310
(dp311
g54
(dp312
sg63
g297
sg56
(lp313
g49
(g50
g51
NtRp314
(dp315
g54
(dp316
g62
I3
ssg63
g310
sg56
(lp317
S''
asbasbasbag49
(g65
g51
NtRp318
(dp319
g54
(dp320
sg63
g251
sg56
(lp321
g49
(g70
g51
NtRp322
(dp323
g54
(dp324
g74
g75
ssg63
g318
sg56
(lp325
S'max-age'
p326
asbag49
(g70
g51
NtRp327
(dp328
g54
(dp329
g81
g82
ssg63
g318
sg56
(lp330
S':'
asbag49
(g70
g51
NtRp331
(dp332
g54
(dp333
sg63
g318
sg56
(lp334
g49
(g50
g51
NtRp335
(dp336
g54
(dp337
g62
I3
ssg63
g331
sg56
(lp338
S''
asbasbasbag49
(g65
g51
NtRp339
(dp340
g54
(dp341
sg63
g251
sg56
(lp342
g49
(g70
g51
NtRp343
(dp344
g54
(dp345
g74
g75
ssg63
g339
sg56
(lp346
S'path'
p347
asbag49
(g70
g51
NtRp348
(dp349
g54
(dp350
g81
g82
ssg63
g339
sg56
(lp351
S':'
asbag49
(g70
g51
NtRp352
(dp353
g54
(dp354
sg63
g339
sg56
(lp355
g49
(g50
g51
NtRp356
(dp357
g54
(dp358
g62
I3
ssg63
g352
sg56
(lp359
S''
asbasbasbag49
(g65
g51
NtRp360
(dp361
g54
(dp362
sg63
g251
sg56
(lp363
g49
(g70
g51
NtRp364
(dp365
g54
(dp366
g74
g75
ssg63
g360
sg56
(lp367
S'secure'
p368
asbag49
(g70
g51
NtRp369
(dp370
g54
(dp371
g81
g82
ssg63
g360
sg56
(lp372
S':'
asbag49
(g70
g51
NtRp373
(dp374
g54
(dp375
sg63
g360
sg56
(lp376
g49
(g50
g51
NtRp377
(dp378
g54
(dp379
g62
I3
ssg63
g373
sg56
(lp380
S''
asbasbasbag49
(g65
g51
NtRp381
(dp382
g54
(dp383
sg63
g251
sg56
(lp384
g49
(g70
g51
NtRp385
(dp386
g54
(dp387
g74
g75
ssg63
g381
sg56
(lp388
S'version'
p389
asbag49
(g70
g51
NtRp390
(dp391
g54
(dp392
g81
g82
ssg63
g381
sg56
(lp393
S':'
asbag49
(g70
g51
NtRp394
(dp395
g54
(dp396
sg63
g381
sg56
(lp397
g49
(g50
g51
NtRp398
(dp399
g54
(dp400
g62
I3
ssg63
g394
sg56
(lp401
S''
asbasbasbasbasbasbasbag49
(g65
g51
NtRp402
(dp403
g54
(dp404
sg63
g226
sg56
(lp405
g49
(g70
g51
NtRp406
(dp407
g54
(dp408
g74
g75
ssg63
g402
sg56
(lp409
S'session_id_golf_2'
p410
asbag49
(g70
g51
NtRp411
(dp412
g54
(dp413
g81
g82
ssg63
g402
sg56
(lp414
S':'
asbag49
(g70
g51
NtRp415
(dp416
g54
(dp417
sg63
g402
sg56
(lp418
g49
(g50
g51
NtRp419
(dp420
g54
(dp421
g62
I4
ssg63
g415
sg56
(lp422
g49
(g58
g51
NtRp423
(dp424
g54
(dp425
g62
I3
ssg63
Nsg56
(lp426
g49
(g65
g51
NtRp427
(dp428
g54
(dp429
sg63
g423
sg56
(lp430
g49
(g70
g51
NtRp431
(dp432
g54
(dp433
g74
g75
ssg63
g427
sg56
(lp434
g263
asbag49
(g70
g51
NtRp435
(dp436
g54
(dp437
g81
g82
ssg63
g427
sg56
(lp438
S':'
asbag49
(g70
g51
NtRp439
(dp440
g54
(dp441
sg63
g427
sg56
(lp442
g49
(g50
g51
NtRp443
(dp444
g54
(dp445
g62
I3
ssg63
g439
sg56
(lp446
S''
asbasbasbag49
(g65
g51
NtRp447
(dp448
g54
(dp449
sg63
g423
sg56
(lp450
g49
(g70
g51
NtRp451
(dp452
g54
(dp453
g74
g75
ssg63
g447
sg56
(lp454
g284
asbag49
(g70
g51
NtRp455
(dp456
g54
(dp457
g81
g82
ssg63
g447
sg56
(lp458
S':'
asbag49
(g70
g51
NtRp459
(dp460
g54
(dp461
sg63
g447
sg56
(lp462
g49
(g50
g51
NtRp463
(dp464
g54
(dp465
g62
I3
ssg63
g459
sg56
(lp466
S''
asbasbasbag49
(g65
g51
NtRp467
(dp468
g54
(dp469
sg63
g423
sg56
(lp470
g49
(g70
g51
NtRp471
(dp472
g54
(dp473
g74
g75
ssg63
g467
sg56
(lp474
g305
asbag49
(g70
g51
NtRp475
(dp476
g54
(dp477
g81
g82
ssg63
g467
sg56
(lp478
S':'
asbag49
(g70
g51
NtRp479
(dp480
g54
(dp481
sg63
g467
sg56
(lp482
g49
(g50
g51
NtRp483
(dp484
g54
(dp485
g62
I3
ssg63
g479
sg56
(lp486
S''
asbasbasbag49
(g65
g51
NtRp487
(dp488
g54
(dp489
sg63
g423
sg56
(lp490
g49
(g70
g51
NtRp491
(dp492
g54
(dp493
g74
g75
ssg63
g487
sg56
(lp494
g326
asbag49
(g70
g51
NtRp495
(dp496
g54
(dp497
g81
g82
ssg63
g487
sg56
(lp498
S':'
asbag49
(g70
g51
NtRp499
(dp500
g54
(dp501
sg63
g487
sg56
(lp502
g49
(g50
g51
NtRp503
(dp504
g54
(dp505
g62
I3
ssg63
g499
sg56
(lp506
S''
asbasbasbag49
(g65
g51
NtRp507
(dp508
g54
(dp509
sg63
g423
sg56
(lp510
g49
(g70
g51
NtRp511
(dp512
g54
(dp513
g74
g75
ssg63
g507
sg56
(lp514
g347
asbag49
(g70
g51
NtRp515
(dp516
g54
(dp517
g81
g82
ssg63
g507
sg56
(lp518
S':'
asbag49
(g70
g51
NtRp519
(dp520
g54
(dp521
sg63
g507
sg56
(lp522
g49
(g50
g51
NtRp523
(dp524
g54
(dp525
g62
I3
ssg63
g519
sg56
(lp526
S''
asbasbasbag49
(g65
g51
NtRp527
(dp528
g54
(dp529
sg63
g423
sg56
(lp530
g49
(g70
g51
NtRp531
(dp532
g54
(dp533
g74
g75
ssg63
g527
sg56
(lp534
g368
asbag49
(g70
g51
NtRp535
(dp536
g54
(dp537
g81
g82
ssg63
g527
sg56
(lp538
S':'
asbag49
(g70
g51
NtRp539
(dp540
g54
(dp541
sg63
g527
sg56
(lp542
g49
(g50
g51
NtRp543
(dp544
g54
(dp545
g62
I3
ssg63
g539
sg56
(lp546
S''
asbasbasbag49
(g65
g51
NtRp547
(dp548
g54
(dp549
sg63
g423
sg56
(lp550
g49
(g70
g51
NtRp551
(dp552
g54
(dp553
g74
g75
ssg63
g547
sg56
(lp554
g389
asbag49
(g70
g51
NtRp555
(dp556
g54
(dp557
g81
g82
ssg63
g547
sg56
(lp558
S':'
asbag49
(g70
g51
NtRp559
(dp560
g54
(dp561
sg63
g547
sg56
(lp562
g49
(g50
g51
NtRp563
(dp564
g54
(dp565
g62
I3
ssg63
g559
sg56
(lp566
S''
asbasbasbasbasbasbasbag49
(g65
g51
NtRp567
(dp568
g54
(dp569
sg63
g226
sg56
(lp570
g49
(g70
g51
NtRp571
(dp572
g54
(dp573
g74
g75
ssg63
g567
sg56
(lp574
S'session_id_welcome'
p575
asbag49
(g70
g51
NtRp576
(dp577
g54
(dp578
g81
g82
ssg63
g567
sg56
(lp579
S':'
asbag49
(g70
g51
NtRp580
(dp581
g54
(dp582
sg63
g567
sg56
(lp583
g49
(g50
g51
NtRp584
(dp585
g54
(dp586
g62
I4
ssg63
g580
sg56
(lp587
g49
(g58
g51
NtRp588
(dp589
g54
(dp590
g62
I3
ssg63
Nsg56
(lp591
g49
(g65
g51
NtRp592
(dp593
g54
(dp594
sg63
g588
sg56
(lp595
g49
(g70
g51
NtRp596
(dp597
g54
(dp598
g74
g75
ssg63
g592
sg56
(lp599
g263
asbag49
(g70
g51
NtRp600
(dp601
g54
(dp602
g81
g82
ssg63
g592
sg56
(lp603
S':'
asbag49
(g70
g51
NtRp604
(dp605
g54
(dp606
sg63
g592
sg56
(lp607
g49
(g50
g51
NtRp608
(dp609
g54
(dp610
g62
I3
ssg63
g604
sg56
(lp611
S''
asbasbasbag49
(g65
g51
NtRp612
(dp613
g54
(dp614
sg63
g588
sg56
(lp615
g49
(g70
g51
NtRp616
(dp617
g54
(dp618
g74
g75
ssg63
g612
sg56
(lp619
g284
asbag49
(g70
g51
NtRp620
(dp621
g54
(dp622
g81
g82
ssg63
g612
sg56
(lp623
S':'
asbag49
(g70
g51
NtRp624
(dp625
g54
(dp626
sg63
g612
sg56
(lp627
g49
(g50
g51
NtRp628
(dp629
g54
(dp630
g62
I3
ssg63
g624
sg56
(lp631
S''
asbasbasbag49
(g65
g51
NtRp632
(dp633
g54
(dp634
sg63
g588
sg56
(lp635
g49
(g70
g51
NtRp636
(dp637
g54
(dp638
g74
g75
ssg63
g632
sg56
(lp639
g305
asbag49
(g70
g51
NtRp640
(dp641
g54
(dp642
g81
g82
ssg63
g632
sg56
(lp643
S':'
asbag49
(g70
g51
NtRp644
(dp645
g54
(dp646
sg63
g632
sg56
(lp647
g49
(g50
g51
NtRp648
(dp649
g54
(dp650
g62
I3
ssg63
g644
sg56
(lp651
S''
asbasbasbag49
(g65
g51
NtRp652
(dp653
g54
(dp654
sg63
g588
sg56
(lp655
g49
(g70
g51
NtRp656
(dp657
g54
(dp658
g74
g75
ssg63
g652
sg56
(lp659
g326
asbag49
(g70
g51
NtRp660
(dp661
g54
(dp662
g81
g82
ssg63
g652
sg56
(lp663
S':'
asbag49
(g70
g51
NtRp664
(dp665
g54
(dp666
sg63
g652
sg56
(lp667
g49
(g50
g51
NtRp668
(dp669
g54
(dp670
g62
I3
ssg63
g664
sg56
(lp671
S''
asbasbasbag49
(g65
g51
NtRp672
(dp673
g54
(dp674
sg63
g588
sg56
(lp675
g49
(g70
g51
NtRp676
(dp677
g54
(dp678
g74
g75
ssg63
g672
sg56
(lp679
g347
asbag49
(g70
g51
NtRp680
(dp681
g54
(dp682
g81
g82
ssg63
g672
sg56
(lp683
S':'
asbag49
(g70
g51
NtRp684
(dp685
g54
(dp686
sg63
g672
sg56
(lp687
g49
(g50
g51
NtRp688
(dp689
g54
(dp690
g62
I3
ssg63
g684
sg56
(lp691
S''
asbasbasbag49
(g65
g51
NtRp692
(dp693
g54
(dp694
sg63
g588
sg56
(lp695
g49
(g70
g51
NtRp696
(dp697
g54
(dp698
g74
g75
ssg63
g692
sg56
(lp699
g368
asbag49
(g70
g51
NtRp700
(dp701
g54
(dp702
g81
g82
ssg63
g692
sg56
(lp703
S':'
asbag49
(g70
g51
NtRp704
(dp705
g54
(dp706
sg63
g692
sg56
(lp707
g49
(g50
g51
NtRp708
(dp709
g54
(dp710
g62
I3
ssg63
g704
sg56
(lp711
S''
asbasbasbag49
(g65
g51
NtRp712
(dp713
g54
(dp714
sg63
g588
sg56
(lp715
g49
(g70
g51
NtRp716
(dp717
g54
(dp718
g74
g75
ssg63
g712
sg56
(lp719
g389
asbag49
(g70
g51
NtRp720
(dp721
g54
(dp722
g81
g82
ssg63
g712
sg56
(lp723
S':'
asbag49
(g70
g51
NtRp724
(dp725
g54
(dp726
sg63
g712
sg56
(lp727
g49
(g50
g51
NtRp728
(dp729
g54
(dp730
g62
I3
ssg63
g724
sg56
(lp731
S''
asbasbasbasbasbasbasbasbasbasbasbag49
(g65
g51
NtRp732
(dp733
g54
(dp734
sg63
g59
sg56
(lp735
g49
(g70
g51
NtRp736
(dp737
g54
(dp738
g74
g75
ssg63
g732
sg56
(lp739
S'env'
p740
asbag49
(g70
g51
NtRp741
(dp742
g54
(dp743
g81
g82
ssg63
g732
sg56
(lp744
S':'
asbag49
(g70
g51
NtRp745
(dp746
g54
(dp747
sg63
g732
sg56
(lp748
g49
(g50
g51
NtRp749
(dp750
g54
(dp751
g62
I5
ssg63
g745
sg56
(lp752
g49
(g58
g51
NtRp753
(dp754
g54
(dp755
g62
I4
ssg63
Nsg56
(lp756
g49
(g65
g51
NtRp757
(dp758
g54
(dp759
sg63
g753
sg56
(lp760
g49
(g70
g51
NtRp761
(dp762
g54
(dp763
g74
g75
ssg63
g757
sg56
(lp764
S'app_folders'
p765
asbag49
(g70
g51
NtRp766
(dp767
g54
(dp768
g81
g82
ssg63
g757
sg56
(lp769
S':'
asbag49
(g70
g51
NtRp770
(dp771
g54
(dp772
sg63
g757
sg56
(lp773
g49
(g50
g51
NtRp774
(dp775
g54
(dp776
g62
I4
ssg63
g770
sg56
(lp777
S"set(['C:\\\\Users\\\\avjain\\\\Downloads\\\\web2py\\\\applications\\\\Golf_2\\\\', 'C:\\\\Users\\\\avjain\\\\Downloads\\\\web2py\\\\applications\\\\admin\\\\', 'C:\\\\Users\\\\avjain\\\\Downloads\\\\web2py\\\\applications\\\\welcome\\\\'])"
p778
asbasbasbag49
(g65
g51
NtRp779
(dp780
g54
(dp781
sg63
g753
sg56
(lp782
g49
(g70
g51
NtRp783
(dp784
g54
(dp785
g74
g75
ssg63
g779
sg56
(lp786
S'applications_parent'
p787
asbag49
(g70
g51
NtRp788
(dp789
g54
(dp790
g81
g82
ssg63
g779
sg56
(lp791
S':'
asbag49
(g70
g51
NtRp792
(dp793
g54
(dp794
sg63
g779
sg56
(lp795
g49
(g50
g51
NtRp796
(dp797
g54
(dp798
g62
I4
ssg63
g792
sg56
(lp799
S'C:\\Users\\avjain\\Downloads\\web2py'
p800
asbasbasbag49
(g65
g51
NtRp801
(dp802
g54
(dp803
sg63
g753
sg56
(lp804
g49
(g70
g51
NtRp805
(dp806
g54
(dp807
g74
g75
ssg63
g801
sg56
(lp808
S'cmd_args'
p809
asbag49
(g70
g51
NtRp810
(dp811
g54
(dp812
g81
g82
ssg63
g801
sg56
(lp813
S':'
asbag49
(g70
g51
NtRp814
(dp815
g54
(dp816
sg63
g801
sg56
(lp817
g49
(g50
g51
NtRp818
(dp819
g54
(dp820
g62
I4
ssg63
g814
sg56
(lp821
g49
(g58
g51
NtRp822
(dp823
g54
(dp824
g62
I3
ssg63
Nsg56
(lp825
sbasbasbasbag49
(g65
g51
NtRp826
(dp827
g54
(dp828
sg63
g753
sg56
(lp829
g49
(g70
g51
NtRp830
(dp831
g54
(dp832
g74
g75
ssg63
g826
sg56
(lp833
S'cmd_options'
p834
asbag49
(g70
g51
NtRp835
(dp836
g54
(dp837
g81
g82
ssg63
g826
sg56
(lp838
S':'
asbag49
(g70
g51
NtRp839
(dp840
g54
(dp841
sg63
g826
sg56
(lp842
g49
(g50
g51
NtRp843
(dp844
g54
(dp845
g62
I4
ssg63
g839
sg56
(lp846
S"<Values at 0x2764f80: {'verbose': False, 'ip': '127.0.0.1', 'shutdown_timeout': 5, 'taskbar': False, 'nocron': False, 'pid_filename': 'httpserver.pid', 'maxthreads': None, 'softcron': False, 'server_name': 'NBHYDAVJAIN7', 'bpython': False, 'nogui': False, 'port': 8000, 'extcron': False, 'debuglevel': 30, 'test': None, 'folder': 'C:\\\\Users\\\\avjain\\\\Downloads\\\\web2py', 'config': '', 'import_models': False, 'winservice': '', 'shell': None, 'run': '', 'log_filename': 'httpserver.log', 'args': [''], 'socket_timeout': 5, 'ssl_ca_certificate': None, 'scheduler': None, 'profiler_filename': None, 'ssl_private_key': '', 'password': '<ask>', 'request_queue_size': 5, 'ssl_certificate': '', 'cronjob': False, 'numthreads': None, 'quiet': False, 'interfaces': None, 'minthreads': None, 'timeout': 10, 'plain': False, 'nobanner': False}>"
p847
asbasbasbag49
(g65
g51
NtRp848
(dp849
g54
(dp850
sg63
g753
sg56
(lp851
g49
(g70
g51
NtRp852
(dp853
g54
(dp854
g74
g75
ssg63
g848
sg56
(lp855
S'db_sessions'
p856
asbag49
(g70
g51
NtRp857
(dp858
g54
(dp859
g81
g82
ssg63
g848
sg56
(lp860
S':'
asbag49
(g70
g51
NtRp861
(dp862
g54
(dp863
sg63
g848
sg56
(lp864
g49
(g50
g51
NtRp865
(dp866
g54
(dp867
g62
I4
ssg63
g861
sg56
(lp868
S'set([])'
p869
asbasbasbag49
(g65
g51
NtRp870
(dp871
g54
(dp872
sg63
g753
sg56
(lp873
g49
(g70
g51
NtRp874
(dp875
g54
(dp876
g74
g75
ssg63
g870
sg56
(lp877
S'debugging'
p878
asbag49
(g70
g51
NtRp879
(dp880
g54
(dp881
g81
g82
ssg63
g870
sg56
(lp882
S':'
asbag49
(g70
g51
NtRp883
(dp884
g54
(dp885
sg63
g870
sg56
(lp886
g49
(g50
g51
NtRp887
(dp888
g54
(dp889
g62
I4
ssg63
g883
sg56
(lp890
g92
asbasbasbag49
(g65
g51
NtRp891
(dp892
g54
(dp893
sg63
g753
sg56
(lp894
g49
(g70
g51
NtRp895
(dp896
g54
(dp897
g74
g75
ssg63
g891
sg56
(lp898
S'gluon_parent'
p899
asbag49
(g70
g51
NtRp900
(dp901
g54
(dp902
g81
g82
ssg63
g891
sg56
(lp903
S':'
asbag49
(g70
g51
NtRp904
(dp905
g54
(dp906
sg63
g891
sg56
(lp907
g49
(g50
g51
NtRp908
(dp909
g54
(dp910
g62
I4
ssg63
g904
sg56
(lp911
S'C:\\Users\\avjain\\Downloads\\web2py'
p912
asbasbasbag49
(g65
g51
NtRp913
(dp914
g54
(dp915
sg63
g753
sg56
(lp916
g49
(g70
g51
NtRp917
(dp918
g54
(dp919
g74
g75
ssg63
g913
sg56
(lp920
S'http_accept'
p921
asbag49
(g70
g51
NtRp922
(dp923
g54
(dp924
g81
g82
ssg63
g913
sg56
(lp925
S':'
asbag49
(g70
g51
NtRp926
(dp927
g54
(dp928
sg63
g913
sg56
(lp929
g49
(g50
g51
NtRp930
(dp931
g54
(dp932
g62
I4
ssg63
g926
sg56
(lp933
S'text/html,application/xhtml+xml,application/xml;q=0.9,*/*;q=0.8'
p934
asbasbasbag49
(g65
g51
NtRp935
(dp936
g54
(dp937
sg63
g753
sg56
(lp938
g49
(g70
g51
NtRp939
(dp940
g54
(dp941
g74
g75
ssg63
g935
sg56
(lp942
S'http_accept_charset'
p943
asbag49
(g70
g51
NtRp944
(dp945
g54
(dp946
g81
g82
ssg63
g935
sg56
(lp947
S':'
asbag49
(g70
g51
NtRp948
(dp949
g54
(dp950
sg63
g935
sg56
(lp951
g49
(g50
g51
NtRp952
(dp953
g54
(dp954
g62
I4
ssg63
g948
sg56
(lp955
S'ISO-8859-1,utf-8;q=0.7,*;q=0.3'
p956
asbasbasbag49
(g65
g51
NtRp957
(dp958
g54
(dp959
sg63
g753
sg56
(lp960
g49
(g70
g51
NtRp961
(dp962
g54
(dp963
g74
g75
ssg63
g957
sg56
(lp964
S'http_accept_encoding'
p965
asbag49
(g70
g51
NtRp966
(dp967
g54
(dp968
g81
g82
ssg63
g957
sg56
(lp969
S':'
asbag49
(g70
g51
NtRp970
(dp971
g54
(dp972
sg63
g957
sg56
(lp973
g49
(g50
g51
NtRp974
(dp975
g54
(dp976
g62
I4
ssg63
g970
sg56
(lp977
S'gzip,deflate,sdch'
p978
asbasbasbag49
(g65
g51
NtRp979
(dp980
g54
(dp981
sg63
g753
sg56
(lp982
g49
(g70
g51
NtRp983
(dp984
g54
(dp985
g74
g75
ssg63
g979
sg56
(lp986
S'http_accept_language'
p987
asbag49
(g70
g51
NtRp988
(dp989
g54
(dp990
g81
g82
ssg63
g979
sg56
(lp991
S':'
asbag49
(g70
g51
NtRp992
(dp993
g54
(dp994
sg63
g979
sg56
(lp995
g49
(g50
g51
NtRp996
(dp997
g54
(dp998
g62
I4
ssg63
g992
sg56
(lp999
S'en-US,en;q=0.8'
p1000
asbasbasbag49
(g65
g51
NtRp1001
(dp1002
g54
(dp1003
sg63
g753
sg56
(lp1004
g49
(g70
g51
NtRp1005
(dp1006
g54
(dp1007
g74
g75
ssg63
g1001
sg56
(lp1008
S'http_cache_control'
p1009
asbag49
(g70
g51
NtRp1010
(dp1011
g54
(dp1012
g81
g82
ssg63
g1001
sg56
(lp1013
S':'
asbag49
(g70
g51
NtRp1014
(dp1015
g54
(dp1016
sg63
g1001
sg56
(lp1017
g49
(g50
g51
NtRp1018
(dp1019
g54
(dp1020
g62
I4
ssg63
g1014
sg56
(lp1021
S'max-age=0'
p1022
asbasbasbag49
(g65
g51
NtRp1023
(dp1024
g54
(dp1025
sg63
g753
sg56
(lp1026
g49
(g70
g51
NtRp1027
(dp1028
g54
(dp1029
g74
g75
ssg63
g1023
sg56
(lp1030
S'http_connection'
p1031
asbag49
(g70
g51
NtRp1032
(dp1033
g54
(dp1034
g81
g82
ssg63
g1023
sg56
(lp1035
S':'
asbag49
(g70
g51
NtRp1036
(dp1037
g54
(dp1038
sg63
g1023
sg56
(lp1039
g49
(g50
g51
NtRp1040
(dp1041
g54
(dp1042
g62
I4
ssg63
g1036
sg56
(lp1043
S'keep-alive'
p1044
asbasbasbag49
(g65
g51
NtRp1045
(dp1046
g54
(dp1047
sg63
g753
sg56
(lp1048
g49
(g70
g51
NtRp1049
(dp1050
g54
(dp1051
g74
g75
ssg63
g1045
sg56
(lp1052
S'http_cookie'
p1053
asbag49
(g70
g51
NtRp1054
(dp1055
g54
(dp1056
g81
g82
ssg63
g1045
sg56
(lp1057
S':'
asbag49
(g70
g51
NtRp1058
(dp1059
g54
(dp1060
sg63
g1045
sg56
(lp1061
g49
(g50
g51
NtRp1062
(dp1063
g54
(dp1064
g62
I4
ssg63
g1058
sg56
(lp1065
S'session_id_welcome=127.0.0.1-b39ccd9c-cd3e-4de0-b1f4-081c18b13123; session_id_golf_2=127.0.0.1-b2abb96c-79bd-455e-bf11-447a7eebe1ee; session_id_admin=127.0.0.1-33d76dc4-edaa-46e7-b843-af611ed95a23'
p1066
asbasbasbag49
(g65
g51
NtRp1067
(dp1068
g54
(dp1069
sg63
g753
sg56
(lp1070
g49
(g70
g51
NtRp1071
(dp1072
g54
(dp1073
g74
g75
ssg63
g1067
sg56
(lp1074
S'http_host'
p1075
asbag49
(g70
g51
NtRp1076
(dp1077
g54
(dp1078
g81
g82
ssg63
g1067
sg56
(lp1079
S':'
asbag49
(g70
g51
NtRp1080
(dp1081
g54
(dp1082
sg63
g1067
sg56
(lp1083
g49
(g50
g51
NtRp1084
(dp1085
g54
(dp1086
g62
I4
ssg63
g1080
sg56
(lp1087
S'127.0.0.1:8000'
p1088
asbasbasbag49
(g65
g51
NtRp1089
(dp1090
g54
(dp1091
sg63
g753
sg56
(lp1092
g49
(g70
g51
NtRp1093
(dp1094
g54
(dp1095
g74
g75
ssg63
g1089
sg56
(lp1096
S'http_referer'
p1097
asbag49
(g70
g51
NtRp1098
(dp1099
g54
(dp1100
g81
g82
ssg63
g1089
sg56
(lp1101
S':'
asbag49
(g70
g51
NtRp1102
(dp1103
g54
(dp1104
sg63
g1089
sg56
(lp1105
g49
(g50
g51
NtRp1106
(dp1107
g54
(dp1108
g62
I4
ssg63
g1102
sg56
(lp1109
S'http://127.0.0.1:8000/Golf_2/default/index'
p1110
asbasbasbag49
(g65
g51
NtRp1111
(dp1112
g54
(dp1113
sg63
g753
sg56
(lp1114
g49
(g70
g51
NtRp1115
(dp1116
g54
(dp1117
g74
g75
ssg63
g1111
sg56
(lp1118
S'http_user_agent'
p1119
asbag49
(g70
g51
NtRp1120
(dp1121
g54
(dp1122
g81
g82
ssg63
g1111
sg56
(lp1123
S':'
asbag49
(g70
g51
NtRp1124
(dp1125
g54
(dp1126
sg63
g1111
sg56
(lp1127
g49
(g50
g51
NtRp1128
(dp1129
g54
(dp1130
g62
I4
ssg63
g1124
sg56
(lp1131
S'Mozilla/5.0 (Windows NT 6.1) AppleWebKit/536.11 (KHTML, like Gecko) Chrome/20.0.1132.57 Safari/536.11'
p1132
asbasbasbag49
(g65
g51
NtRp1133
(dp1134
g54
(dp1135
sg63
g753
sg56
(lp1136
g49
(g70
g51
NtRp1137
(dp1138
g54
(dp1139
g74
g75
ssg63
g1133
sg56
(lp1140
S'is_jython'
p1141
asbag49
(g70
g51
NtRp1142
(dp1143
g54
(dp1144
g81
g82
ssg63
g1133
sg56
(lp1145
S':'
asbag49
(g70
g51
NtRp1146
(dp1147
g54
(dp1148
sg63
g1133
sg56
(lp1149
g49
(g50
g51
NtRp1150
(dp1151
g54
(dp1152
g62
I4
ssg63
g1146
sg56
(lp1153
g92
asbasbasbag49
(g65
g51
NtRp1154
(dp1155
g54
(dp1156
sg63
g753
sg56
(lp1157
g49
(g70
g51
NtRp1158
(dp1159
g54
(dp1160
g74
g75
ssg63
g1154
sg56
(lp1161
S'is_pypy'
p1162
asbag49
(g70
g51
NtRp1163
(dp1164
g54
(dp1165
g81
g82
ssg63
g1154
sg56
(lp1166
S':'
asbag49
(g70
g51
NtRp1167
(dp1168
g54
(dp1169
sg63
g1154
sg56
(lp1170
g49
(g50
g51
NtRp1171
(dp1172
g54
(dp1173
g62
I4
ssg63
g1167
sg56
(lp1174
g92
asbasbasbag49
(g65
g51
NtRp1175
(dp1176
g54
(dp1177
sg63
g753
sg56
(lp1178
g49
(g70
g51
NtRp1179
(dp1180
g54
(dp1181
g74
g75
ssg63
g1175
sg56
(lp1182
S'path_info'
p1183
asbag49
(g70
g51
NtRp1184
(dp1185
g54
(dp1186
g81
g82
ssg63
g1175
sg56
(lp1187
S':'
asbag49
(g70
g51
NtRp1188
(dp1189
g54
(dp1190
sg63
g1175
sg56
(lp1191
g49
(g50
g51
NtRp1192
(dp1193
g54
(dp1194
g62
I4
ssg63
g1188
sg56
(lp1195
S'/Golf_2/default/settings.html'
p1196
asbasbasbag49
(g65
g51
NtRp1197
(dp1198
g54
(dp1199
sg63
g753
sg56
(lp1200
g49
(g70
g51
NtRp1201
(dp1202
g54
(dp1203
g74
g75
ssg63
g1197
sg56
(lp1204
S'query_string'
p1205
asbag49
(g70
g51
NtRp1206
(dp1207
g54
(dp1208
g81
g82
ssg63
g1197
sg56
(lp1209
S':'
asbag49
(g70
g51
NtRp1210
(dp1211
g54
(dp1212
sg63
g1197
sg56
(lp1213
g49
(g50
g51
NtRp1214
(dp1215
g54
(dp1216
g62
I4
ssg63
g1210
sg56
(lp1217
S''
asbasbasbag49
(g65
g51
NtRp1218
(dp1219
g54
(dp1220
sg63
g753
sg56
(lp1221
g49
(g70
g51
NtRp1222
(dp1223
g54
(dp1224
g74
g75
ssg63
g1218
sg56
(lp1225
S'remote_addr'
p1226
asbag49
(g70
g51
NtRp1227
(dp1228
g54
(dp1229
g81
g82
ssg63
g1218
sg56
(lp1230
S':'
asbag49
(g70
g51
NtRp1231
(dp1232
g54
(dp1233
sg63
g1218
sg56
(lp1234
g49
(g50
g51
NtRp1235
(dp1236
g54
(dp1237
g62
I4
ssg63
g1231
sg56
(lp1238
g182
asbasbasbag49
(g65
g51
NtRp1239
(dp1240
g54
(dp1241
sg63
g753
sg56
(lp1242
g49
(g70
g51
NtRp1243
(dp1244
g54
(dp1245
g74
g75
ssg63
g1239
sg56
(lp1246
S'remote_port'
p1247
asbag49
(g70
g51
NtRp1248
(dp1249
g54
(dp1250
g81
g82
ssg63
g1239
sg56
(lp1251
S':'
asbag49
(g70
g51
NtRp1252
(dp1253
g54
(dp1254
sg63
g1239
sg56
(lp1255
g49
(g50
g51
NtRp1256
(dp1257
g54
(dp1258
g62
I4
ssg63
g1252
sg56
(lp1259
S'50196'
p1260
asbasbasbag49
(g65
g51
NtRp1261
(dp1262
g54
(dp1263
sg63
g753
sg56
(lp1264
g49
(g70
g51
NtRp1265
(dp1266
g54
(dp1267
g74
g75
ssg63
g1261
sg56
(lp1268
S'request_method'
p1269
asbag49
(g70
g51
NtRp1270
(dp1271
g54
(dp1272
g81
g82
ssg63
g1261
sg56
(lp1273
S':'
asbag49
(g70
g51
NtRp1274
(dp1275
g54
(dp1276
sg63
g1261
sg56
(lp1277
g49
(g50
g51
NtRp1278
(dp1279
g54
(dp1280
g62
I4
ssg63
g1274
sg56
(lp1281
S'GET'
p1282
asbasbasbag49
(g65
g51
NtRp1283
(dp1284
g54
(dp1285
sg63
g753
sg56
(lp1286
g49
(g70
g51
NtRp1287
(dp1288
g54
(dp1289
g74
g75
ssg63
g1283
sg56
(lp1290
S'script_name'
p1291
asbag49
(g70
g51
NtRp1292
(dp1293
g54
(dp1294
g81
g82
ssg63
g1283
sg56
(lp1295
S':'
asbag49
(g70
g51
NtRp1296
(dp1297
g54
(dp1298
sg63
g1283
sg56
(lp1299
g49
(g50
g51
NtRp1300
(dp1301
g54
(dp1302
g62
I4
ssg63
g1296
sg56
(lp1303
S''
asbasbasbag49
(g65
g51
NtRp1304
(dp1305
g54
(dp1306
sg63
g753
sg56
(lp1307
g49
(g70
g51
NtRp1308
(dp1309
g54
(dp1310
g74
g75
ssg63
g1304
sg56
(lp1311
S'server_name'
p1312
asbag49
(g70
g51
NtRp1313
(dp1314
g54
(dp1315
g81
g82
ssg63
g1304
sg56
(lp1316
S':'
asbag49
(g70
g51
NtRp1317
(dp1318
g54
(dp1319
sg63
g1304
sg56
(lp1320
g49
(g50
g51
NtRp1321
(dp1322
g54
(dp1323
g62
I4
ssg63
g1317
sg56
(lp1324
S'NBHYDAVJAIN7'
p1325
asbasbasbag49
(g65
g51
NtRp1326
(dp1327
g54
(dp1328
sg63
g753
sg56
(lp1329
g49
(g70
g51
NtRp1330
(dp1331
g54
(dp1332
g74
g75
ssg63
g1326
sg56
(lp1333
S'server_port'
p1334
asbag49
(g70
g51
NtRp1335
(dp1336
g54
(dp1337
g81
g82
ssg63
g1326
sg56
(lp1338
S':'
asbag49
(g70
g51
NtRp1339
(dp1340
g54
(dp1341
sg63
g1326
sg56
(lp1342
g49
(g50
g51
NtRp1343
(dp1344
g54
(dp1345
g62
I4
ssg63
g1339
sg56
(lp1346
S'8000'
p1347
asbasbasbag49
(g65
g51
NtRp1348
(dp1349
g54
(dp1350
sg63
g753
sg56
(lp1351
g49
(g70
g51
NtRp1352
(dp1353
g54
(dp1354
g74
g75
ssg63
g1348
sg56
(lp1355
S'server_protocol'
p1356
asbag49
(g70
g51
NtRp1357
(dp1358
g54
(dp1359
g81
g82
ssg63
g1348
sg56
(lp1360
S':'
asbag49
(g70
g51
NtRp1361
(dp1362
g54
(dp1363
sg63
g1348
sg56
(lp1364
g49
(g50
g51
NtRp1365
(dp1366
g54
(dp1367
g62
I4
ssg63
g1361
sg56
(lp1368
S'HTTP/1.1'
p1369
asbasbasbag49
(g65
g51
NtRp1370
(dp1371
g54
(dp1372
sg63
g753
sg56
(lp1373
g49
(g70
g51
NtRp1374
(dp1375
g54
(dp1376
g74
g75
ssg63
g1370
sg56
(lp1377
S'server_software'
p1378
asbag49
(g70
g51
NtRp1379
(dp1380
g54
(dp1381
g81
g82
ssg63
g1370
sg56
(lp1382
S':'
asbag49
(g70
g51
NtRp1383
(dp1384
g54
(dp1385
sg63
g1370
sg56
(lp1386
g49
(g50
g51
NtRp1387
(dp1388
g54
(dp1389
g62
I4
ssg63
g1383
sg56
(lp1390
S'Rocket 1.2.4'
p1391
asbasbasbag49
(g65
g51
NtRp1392
(dp1393
g54
(dp1394
sg63
g753
sg56
(lp1395
g49
(g70
g51
NtRp1396
(dp1397
g54
(dp1398
g74
g75
ssg63
g1392
sg56
(lp1399
S'web2py_crontype'
p1400
asbag49
(g70
g51
NtRp1401
(dp1402
g54
(dp1403
g81
g82
ssg63
g1392
sg56
(lp1404
S':'
asbag49
(g70
g51
NtRp1405
(dp1406
g54
(dp1407
sg63
g1392
sg56
(lp1408
g49
(g50
g51
NtRp1409
(dp1410
g54
(dp1411
g62
I4
ssg63
g1405
sg56
(lp1412
S'hard'
p1413
asbasbasbag49
(g65
g51
NtRp1414
(dp1415
g54
(dp1416
sg63
g753
sg56
(lp1417
g49
(g70
g51
NtRp1418
(dp1419
g54
(dp1420
g74
g75
ssg63
g1414
sg56
(lp1421
S'web2py_path'
p1422
asbag49
(g70
g51
NtRp1423
(dp1424
g54
(dp1425
g81
g82
ssg63
g1414
sg56
(lp1426
S':'
asbag49
(g70
g51
NtRp1427
(dp1428
g54
(dp1429
sg63
g1414
sg56
(lp1430
g49
(g50
g51
NtRp1431
(dp1432
g54
(dp1433
g62
I4
ssg63
g1427
sg56
(lp1434
g800
asbasbasbag49
(g65
g51
NtRp1435
(dp1436
g54
(dp1437
sg63
g753
sg56
(lp1438
g49
(g70
g51
NtRp1439
(dp1440
g54
(dp1441
g74
g75
ssg63
g1435
sg56
(lp1442
S'web2py_version'
p1443
asbag49
(g70
g51
NtRp1444
(dp1445
g54
(dp1446
g81
g82
ssg63
g1435
sg56
(lp1447
S':'
asbag49
(g70
g51
NtRp1448
(dp1449
g54
(dp1450
sg63
g1435
sg56
(lp1451
g49
(g50
g51
NtRp1452
(dp1453
g54
(dp1454
g62
I4
ssg63
g1448
sg56
(lp1455
g49
(g58
g51
NtRp1456
(dp1457
g54
(dp1458
g62
I3
ssg63
Nsg56
(lp1459
g49
(g65
g51
NtRp1460
(dp1461
g54
(dp1462
sg63
g1456
sg56
(lp1463
g49
(g70
g51
NtRp1464
(dp1465
g54
(dp1466
sg63
g1460
sg56
(lp1467
g49
(g50
g51
NtRp1468
(dp1469
g54
(dp1470
g62
I3
ssg63
g1464
sg56
(lp1471
S'1'
asbasbasbag49
(g65
g51
NtRp1472
(dp1473
g54
(dp1474
sg63
g1456
sg56
(lp1475
g49
(g70
g51
NtRp1476
(dp1477
g54
(dp1478
sg63
g1472
sg56
(lp1479
g49
(g50
g51
NtRp1480
(dp1481
g54
(dp1482
g62
I3
ssg63
g1476
sg56
(lp1483
S'99'
p1484
asbasbasbag49
(g65
g51
NtRp1485
(dp1486
g54
(dp1487
sg63
g1456
sg56
(lp1488
g49
(g70
g51
NtRp1489
(dp1490
g54
(dp1491
sg63
g1485
sg56
(lp1492
g49
(g50
g51
NtRp1493
(dp1494
g54
(dp1495
g62
I3
ssg63
g1489
sg56
(lp1496
S'7'
asbasbasbag49
(g65
g51
NtRp1497
(dp1498
g54
(dp1499
sg63
g1456
sg56
(lp1500
g49
(g70
g51
NtRp1501
(dp1502
g54
(dp1503
sg63
g1497
sg56
(lp1504
g49
(g50
g51
NtRp1505
(dp1506
g54
(dp1507
g62
I3
ssg63
g1501
sg56
(lp1508
S'datetime.datetime(2012, 3, 4, 22, 12, 8)'
p1509
asbasbasbag49
(g65
g51
NtRp1510
(dp1511
g54
(dp1512
sg63
g1456
sg56
(lp1513
g49
(g70
g51
NtRp1514
(dp1515
g54
(dp1516
sg63
g1510
sg56
(lp1517
g49
(g50
g51
NtRp1518
(dp1519
g54
(dp1520
g62
I3
ssg63
g1514
sg56
(lp1521
S'stable'
p1522
asbasbasbasbasbasbasbag49
(g65
g51
NtRp1523
(dp1524
g54
(dp1525
sg63
g753
sg56
(lp1526
g49
(g70
g51
NtRp1527
(dp1528
g54
(dp1529
g74
g75
ssg63
g1523
sg56
(lp1530
S'wsgi_errors'
p1531
asbag49
(g70
g51
NtRp1532
(dp1533
g54
(dp1534
g81
g82
ssg63
g1523
sg56
(lp1535
S':'
asbag49
(g70
g51
NtRp1536
(dp1537
g54
(dp1538
sg63
g1523
sg56
(lp1539
g49
(g50
g51
NtRp1540
(dp1541
g54
(dp1542
g62
I4
ssg63
g1536
sg56
(lp1543
S"<open file '<stderr>', mode 'w' at 0x014700B0>"
p1544
asbasbasbag49
(g65
g51
NtRp1545
(dp1546
g54
(dp1547
sg63
g753
sg56
(lp1548
g49
(g70
g51
NtRp1549
(dp1550
g54
(dp1551
g74
g75
ssg63
g1545
sg56
(lp1552
S'wsgi_file_wrapper'
p1553
asbag49
(g70
g51
NtRp1554
(dp1555
g54
(dp1556
g81
g82
ssg63
g1545
sg56
(lp1557
S':'
asbag49
(g70
g51
NtRp1558
(dp1559
g54
(dp1560
sg63
g1545
sg56
(lp1561
g49
(g50
g51
NtRp1562
(dp1563
g54
(dp1564
g62
I4
ssg63
g1558
sg56
(lp1565
S'<class wsgiref.util.FileWrapper at 0x024DC2D0>'
p1566
asbasbasbag49
(g65
g51
NtRp1567
(dp1568
g54
(dp1569
sg63
g753
sg56
(lp1570
g49
(g70
g51
NtRp1571
(dp1572
g54
(dp1573
g74
g75
ssg63
g1567
sg56
(lp1574
S'wsgi_input'
p1575
asbag49
(g70
g51
NtRp1576
(dp1577
g54
(dp1578
g81
g82
ssg63
g1567
sg56
(lp1579
S':'
asbag49
(g70
g51
NtRp1580
(dp1581
g54
(dp1582
sg63
g1567
sg56
(lp1583
g49
(g50
g51
NtRp1584
(dp1585
g54
(dp1586
g62
I4
ssg63
g1580
sg56
(lp1587
S'<socket._fileobject object at 0x063014F0>'
p1588
asbasbasbag49
(g65
g51
NtRp1589
(dp1590
g54
(dp1591
sg63
g753
sg56
(lp1592
g49
(g70
g51
NtRp1593
(dp1594
g54
(dp1595
g74
g75
ssg63
g1589
sg56
(lp1596
S'wsgi_multiprocess'
p1597
asbag49
(g70
g51
NtRp1598
(dp1599
g54
(dp1600
g81
g82
ssg63
g1589
sg56
(lp1601
S':'
asbag49
(g70
g51
NtRp1602
(dp1603
g54
(dp1604
sg63
g1589
sg56
(lp1605
g49
(g50
g51
NtRp1606
(dp1607
g54
(dp1608
g62
I4
ssg63
g1602
sg56
(lp1609
g92
asbasbasbag49
(g65
g51
NtRp1610
(dp1611
g54
(dp1612
sg63
g753
sg56
(lp1613
g49
(g70
g51
NtRp1614
(dp1615
g54
(dp1616
g74
g75
ssg63
g1610
sg56
(lp1617
S'wsgi_multithread'
p1618
asbag49
(g70
g51
NtRp1619
(dp1620
g54
(dp1621
g81
g82
ssg63
g1610
sg56
(lp1622
S':'
asbag49
(g70
g51
NtRp1623
(dp1624
g54
(dp1625
sg63
g1610
sg56
(lp1626
g49
(g50
g51
NtRp1627
(dp1628
g54
(dp1629
g62
I4
ssg63
g1623
sg56
(lp1630
S'True'
p1631
asbasbasbag49
(g65
g51
NtRp1632
(dp1633
g54
(dp1634
sg63
g753
sg56
(lp1635
g49
(g70
g51
NtRp1636
(dp1637
g54
(dp1638
g74
g75
ssg63
g1632
sg56
(lp1639
S'wsgi_run_once'
p1640
asbag49
(g70
g51
NtRp1641
(dp1642
g54
(dp1643
g81
g82
ssg63
g1632
sg56
(lp1644
S':'
asbag49
(g70
g51
NtRp1645
(dp1646
g54
(dp1647
sg63
g1632
sg56
(lp1648
g49
(g50
g51
NtRp1649
(dp1650
g54
(dp1651
g62
I4
ssg63
g1645
sg56
(lp1652
g92
asbasbasbag49
(g65
g51
NtRp1653
(dp1654
g54
(dp1655
sg63
g753
sg56
(lp1656
g49
(g70
g51
NtRp1657
(dp1658
g54
(dp1659
g74
g75
ssg63
g1653
sg56
(lp1660
S'wsgi_url_scheme'
p1661
asbag49
(g70
g51
NtRp1662
(dp1663
g54
(dp1664
g81
g82
ssg63
g1653
sg56
(lp1665
S':'
asbag49
(g70
g51
NtRp1666
(dp1667
g54
(dp1668
sg63
g1653
sg56
(lp1669
g49
(g50
g51
NtRp1670
(dp1671
g54
(dp1672
g62
I4
ssg63
g1666
sg56
(lp1673
S'http'
p1674
asbasbasbag49
(g65
g51
NtRp1675
(dp1676
g54
(dp1677
sg63
g753
sg56
(lp1678
g49
(g70
g51
NtRp1679
(dp1680
g54
(dp1681
g74
g75
ssg63
g1675
sg56
(lp1682
S'wsgi_version'
p1683
asbag49
(g70
g51
NtRp1684
(dp1685
g54
(dp1686
g81
g82
ssg63
g1675
sg56
(lp1687
S':'
asbag49
(g70
g51
NtRp1688
(dp1689
g54
(dp1690
sg63
g1675
sg56
(lp1691
g49
(g50
g51
NtRp1692
(dp1693
g54
(dp1694
g62
I4
ssg63
g1688
sg56
(lp1695
g49
(g58
g51
NtRp1696
(dp1697
g54
(dp1698
g62
I3
ssg63
Nsg56
(lp1699
g49
(g65
g51
NtRp1700
(dp1701
g54
(dp1702
sg63
g1696
sg56
(lp1703
g49
(g70
g51
NtRp1704
(dp1705
g54
(dp1706
sg63
g1700
sg56
(lp1707
g49
(g50
g51
NtRp1708
(dp1709
g54
(dp1710
g62
I3
ssg63
g1704
sg56
(lp1711
S'1'
asbasbasbag49
(g65
g51
NtRp1712
(dp1713
g54
(dp1714
sg63
g1696
sg56
(lp1715
g49
(g70
g51
NtRp1716
(dp1717
g54
(dp1718
sg63
g1712
sg56
(lp1719
g49
(g50
g51
NtRp1720
(dp1721
g54
(dp1722
g62
I3
ssg63
g1716
sg56
(lp1723
S'0'
asbasbasbasbasbasbasbasbasbasbasbag49
(g65
g51
NtRp1724
(dp1725
g54
(dp1726
sg63
g59
sg56
(lp1727
g49
(g70
g51
NtRp1728
(dp1729
g54
(dp1730
g74
g75
ssg63
g1724
sg56
(lp1731
S'extension'
p1732
asbag49
(g70
g51
NtRp1733
(dp1734
g54
(dp1735
g81
g82
ssg63
g1724
sg56
(lp1736
S':'
asbag49
(g70
g51
NtRp1737
(dp1738
g54
(dp1739
sg63
g1724
sg56
(lp1740
g49
(g50
g51
NtRp1741
(dp1742
g54
(dp1743
g62
I5
ssg63
g1737
sg56
(lp1744
S'html'
p1745
asbasbasbag49
(g65
g51
NtRp1746
(dp1747
g54
(dp1748
sg63
g59
sg56
(lp1749
g49
(g70
g51
NtRp1750
(dp1751
g54
(dp1752
g74
g75
ssg63
g1746
sg56
(lp1753
S'folder'
p1754
asbag49
(g70
g51
NtRp1755
(dp1756
g54
(dp1757
g81
g82
ssg63
g1746
sg56
(lp1758
S':'
asbag49
(g70
g51
NtRp1759
(dp1760
g54
(dp1761
sg63
g1746
sg56
(lp1762
g49
(g50
g51
NtRp1763
(dp1764
g54
(dp1765
g62
I5
ssg63
g1759
sg56
(lp1766
S'C:\\Users\\avjain\\Downloads\\web2py\\applications\\Golf_2\\'
p1767
asbasbasbag49
(g65
g51
NtRp1768
(dp1769
g54
(dp1770
sg63
g59
sg56
(lp1771
g49
(g70
g51
NtRp1772
(dp1773
g54
(dp1774
g74
g75
ssg63
g1768
sg56
(lp1775
S'function'
p1776
asbag49
(g70
g51
NtRp1777
(dp1778
g54
(dp1779
g81
g82
ssg63
g1768
sg56
(lp1780
S':'
asbag49
(g70
g51
NtRp1781
(dp1782
g54
(dp1783
sg63
g1768
sg56
(lp1784
g49
(g50
g51
NtRp1785
(dp1786
g54
(dp1787
g62
I5
ssg63
g1781
sg56
(lp1788
S'settings'
p1789
asbasbasbag49
(g65
g51
NtRp1790
(dp1791
g54
(dp1792
sg63
g59
sg56
(lp1793
g49
(g70
g51
NtRp1794
(dp1795
g54
(dp1796
g74
g75
ssg63
g1790
sg56
(lp1797
S'get_vars'
p1798
asbag49
(g70
g51
NtRp1799
(dp1800
g54
(dp1801
g81
g82
ssg63
g1790
sg56
(lp1802
S':'
asbag49
(g70
g51
NtRp1803
(dp1804
g54
(dp1805
sg63
g1790
sg56
(lp1806
g49
(g50
g51
NtRp1807
(dp1808
g54
(dp1809
g62
I5
ssg63
g1803
sg56
(lp1810
g49
(g58
g51
NtRp1811
(dp1812
g54
(dp1813
g62
I4
ssg63
Nsg56
(lp1814
sbasbasbasbag49
(g65
g51
NtRp1815
(dp1816
g54
(dp1817
sg63
g59
sg56
(lp1818
g49
(g70
g51
NtRp1819
(dp1820
g54
(dp1821
g74
g75
ssg63
g1815
sg56
(lp1822
S'global_settings'
p1823
asbag49
(g70
g51
NtRp1824
(dp1825
g54
(dp1826
g81
g82
ssg63
g1815
sg56
(lp1827
S':'
asbag49
(g70
g51
NtRp1828
(dp1829
g54
(dp1830
sg63
g1815
sg56
(lp1831
g49
(g50
g51
NtRp1832
(dp1833
g54
(dp1834
g62
I5
ssg63
g1828
sg56
(lp1835
g49
(g58
g51
NtRp1836
(dp1837
g54
(dp1838
g62
I4
ssg63
Nsg56
(lp1839
g49
(g65
g51
NtRp1840
(dp1841
g54
(dp1842
sg63
g1836
sg56
(lp1843
g49
(g70
g51
NtRp1844
(dp1845
g54
(dp1846
g74
g75
ssg63
g1840
sg56
(lp1847
g765
asbag49
(g70
g51
NtRp1848
(dp1849
g54
(dp1850
g81
g82
ssg63
g1840
sg56
(lp1851
S':'
asbag49
(g70
g51
NtRp1852
(dp1853
g54
(dp1854
sg63
g1840
sg56
(lp1855
g49
(g50
g51
NtRp1856
(dp1857
g54
(dp1858
g62
I4
ssg63
g1852
sg56
(lp1859
S"set(['C:\\\\Users\\\\avjain\\\\Downloads\\\\web2py\\\\applications\\\\Golf_2\\\\', 'C:\\\\Users\\\\avjain\\\\Downloads\\\\web2py\\\\applications\\\\admin\\\\', 'C:\\\\Users\\\\avjain\\\\Downloads\\\\web2py\\\\applications\\\\welcome\\\\'])"
p1860
asbasbasbag49
(g65
g51
NtRp1861
(dp1862
g54
(dp1863
sg63
g1836
sg56
(lp1864
g49
(g70
g51
NtRp1865
(dp1866
g54
(dp1867
g74
g75
ssg63
g1861
sg56
(lp1868
g787
asbag49
(g70
g51
NtRp1869
(dp1870
g54
(dp1871
g81
g82
ssg63
g1861
sg56
(lp1872
S':'
asbag49
(g70
g51
NtRp1873
(dp1874
g54
(dp1875
sg63
g1861
sg56
(lp1876
g49
(g50
g51
NtRp1877
(dp1878
g54
(dp1879
g62
I4
ssg63
g1873
sg56
(lp1880
g800
asbasbasbag49
(g65
g51
NtRp1881
(dp1882
g54
(dp1883
sg63
g1836
sg56
(lp1884
g49
(g70
g51
NtRp1885
(dp1886
g54
(dp1887
g74
g75
ssg63
g1881
sg56
(lp1888
g809
asbag49
(g70
g51
NtRp1889
(dp1890
g54
(dp1891
g81
g82
ssg63
g1881
sg56
(lp1892
S':'
asbag49
(g70
g51
NtRp1893
(dp1894
g54
(dp1895
sg63
g1881
sg56
(lp1896
g49
(g50
g51
NtRp1897
(dp1898
g54
(dp1899
g62
I4
ssg63
g1893
sg56
(lp1900
g49
(g58
g51
NtRp1901
(dp1902
g54
(dp1903
g62
I3
ssg63
Nsg56
(lp1904
sbasbasbasbag49
(g65
g51
NtRp1905
(dp1906
g54
(dp1907
sg63
g1836
sg56
(lp1908
g49
(g70
g51
NtRp1909
(dp1910
g54
(dp1911
g74
g75
ssg63
g1905
sg56
(lp1912
g834
asbag49
(g70
g51
NtRp1913
(dp1914
g54
(dp1915
g81
g82
ssg63
g1905
sg56
(lp1916
S':'
asbag49
(g70
g51
NtRp1917
(dp1918
g54
(dp1919
sg63
g1905
sg56
(lp1920
g49
(g50
g51
NtRp1921
(dp1922
g54
(dp1923
g62
I4
ssg63
g1917
sg56
(lp1924
S"<Values at 0x2764f80: {'verbose': False, 'ip': '127.0.0.1', 'shutdown_timeout': 5, 'taskbar': False, 'nocron': False, 'pid_filename': 'httpserver.pid', 'maxthreads': None, 'softcron': False, 'server_name': 'NBHYDAVJAIN7', 'bpython': False, 'nogui': False, 'port': 8000, 'extcron': False, 'debuglevel': 30, 'test': None, 'folder': 'C:\\\\Users\\\\avjain\\\\Downloads\\\\web2py', 'config': '', 'import_models': False, 'winservice': '', 'shell': None, 'run': '', 'log_filename': 'httpserver.log', 'args': [''], 'socket_timeout': 5, 'ssl_ca_certificate': None, 'scheduler': None, 'profiler_filename': None, 'ssl_private_key': '', 'password': '<ask>', 'request_queue_size': 5, 'ssl_certificate': '', 'cronjob': False, 'numthreads': None, 'quiet': False, 'interfaces': None, 'minthreads': None, 'timeout': 10, 'plain': False, 'nobanner': False}>"
p1925
asbasbasbag49
(g65
g51
NtRp1926
(dp1927
g54
(dp1928
sg63
g1836
sg56
(lp1929
g49
(g70
g51
NtRp1930
(dp1931
g54
(dp1932
g74
g75
ssg63
g1926
sg56
(lp1933
g856
asbag49
(g70
g51
NtRp1934
(dp1935
g54
(dp1936
g81
g82
ssg63
g1926
sg56
(lp1937
S':'
asbag49
(g70
g51
NtRp1938
(dp1939
g54
(dp1940
sg63
g1926
sg56
(lp1941
g49
(g50
g51
NtRp1942
(dp1943
g54
(dp1944
g62
I4
ssg63
g1938
sg56
(lp1945
S'set([])'
p1946
asbasbasbag49
(g65
g51
NtRp1947
(dp1948
g54
(dp1949
sg63
g1836
sg56
(lp1950
g49
(g70
g51
NtRp1951
(dp1952
g54
(dp1953
g74
g75
ssg63
g1947
sg56
(lp1954
g878
asbag49
(g70
g51
NtRp1955
(dp1956
g54
(dp1957
g81
g82
ssg63
g1947
sg56
(lp1958
S':'
asbag49
(g70
g51
NtRp1959
(dp1960
g54
(dp1961
sg63
g1947
sg56
(lp1962
g49
(g50
g51
NtRp1963
(dp1964
g54
(dp1965
g62
I4
ssg63
g1959
sg56
(lp1966
g92
asbasbasbag49
(g65
g51
NtRp1967
(dp1968
g54
(dp1969
sg63
g1836
sg56
(lp1970
g49
(g70
g51
NtRp1971
(dp1972
g54
(dp1973
g74
g75
ssg63
g1967
sg56
(lp1974
g899
asbag49
(g70
g51
NtRp1975
(dp1976
g54
(dp1977
g81
g82
ssg63
g1967
sg56
(lp1978
S':'
asbag49
(g70
g51
NtRp1979
(dp1980
g54
(dp1981
sg63
g1967
sg56
(lp1982
g49
(g50
g51
NtRp1983
(dp1984
g54
(dp1985
g62
I4
ssg63
g1979
sg56
(lp1986
g912
asbasbasbag49
(g65
g51
NtRp1987
(dp1988
g54
(dp1989
sg63
g1836
sg56
(lp1990
g49
(g70
g51
NtRp1991
(dp1992
g54
(dp1993
g74
g75
ssg63
g1987
sg56
(lp1994
g1141
asbag49
(g70
g51
NtRp1995
(dp1996
g54
(dp1997
g81
g82
ssg63
g1987
sg56
(lp1998
S':'
asbag49
(g70
g51
NtRp1999
(dp2000
g54
(dp2001
sg63
g1987
sg56
(lp2002
g49
(g50
g51
NtRp2003
(dp2004
g54
(dp2005
g62
I4
ssg63
g1999
sg56
(lp2006
g92
asbasbasbag49
(g65
g51
NtRp2007
(dp2008
g54
(dp2009
sg63
g1836
sg56
(lp2010
g49
(g70
g51
NtRp2011
(dp2012
g54
(dp2013
g74
g75
ssg63
g2007
sg56
(lp2014
g1162
asbag49
(g70
g51
NtRp2015
(dp2016
g54
(dp2017
g81
g82
ssg63
g2007
sg56
(lp2018
S':'
asbag49
(g70
g51
NtRp2019
(dp2020
g54
(dp2021
sg63
g2007
sg56
(lp2022
g49
(g50
g51
NtRp2023
(dp2024
g54
(dp2025
g62
I4
ssg63
g2019
sg56
(lp2026
g92
asbasbasbag49
(g65
g51
NtRp2027
(dp2028
g54
(dp2029
sg63
g1836
sg56
(lp2030
g49
(g70
g51
NtRp2031
(dp2032
g54
(dp2033
g74
g75
ssg63
g2027
sg56
(lp2034
g1400
asbag49
(g70
g51
NtRp2035
(dp2036
g54
(dp2037
g81
g82
ssg63
g2027
sg56
(lp2038
S':'
asbag49
(g70
g51
NtRp2039
(dp2040
g54
(dp2041
sg63
g2027
sg56
(lp2042
g49
(g50
g51
NtRp2043
(dp2044
g54
(dp2045
g62
I4
ssg63
g2039
sg56
(lp2046
g1413
asbasbasbag49
(g65
g51
NtRp2047
(dp2048
g54
(dp2049
sg63
g1836
sg56
(lp2050
g49
(g70
g51
NtRp2051
(dp2052
g54
(dp2053
g74
g75
ssg63
g2047
sg56
(lp2054
g1443
asbag49
(g70
g51
NtRp2055
(dp2056
g54
(dp2057
g81
g82
ssg63
g2047
sg56
(lp2058
S':'
asbag49
(g70
g51
NtRp2059
(dp2060
g54
(dp2061
sg63
g2047
sg56
(lp2062
g49
(g50
g51
NtRp2063
(dp2064
g54
(dp2065
g62
I4
ssg63
g2059
sg56
(lp2066
g49
(g58
g51
NtRp2067
(dp2068
g54
(dp2069
g62
I3
ssg63
Nsg56
(lp2070
g49
(g65
g51
NtRp2071
(dp2072
g54
(dp2073
sg63
g2067
sg56
(lp2074
g49
(g70
g51
NtRp2075
(dp2076
g54
(dp2077
sg63
g2071
sg56
(lp2078
g49
(g50
g51
NtRp2079
(dp2080
g54
(dp2081
g62
I3
ssg63
g2075
sg56
(lp2082
S'1'
asbasbasbag49
(g65
g51
NtRp2083
(dp2084
g54
(dp2085
sg63
g2067
sg56
(lp2086
g49
(g70
g51
NtRp2087
(dp2088
g54
(dp2089
sg63
g2083
sg56
(lp2090
g49
(g50
g51
NtRp2091
(dp2092
g54
(dp2093
g62
I3
ssg63
g2087
sg56
(lp2094
S'99'
p2095
asbasbasbag49
(g65
g51
NtRp2096
(dp2097
g54
(dp2098
sg63
g2067
sg56
(lp2099
g49
(g70
g51
NtRp2100
(dp2101
g54
(dp2102
sg63
g2096
sg56
(lp2103
g49
(g50
g51
NtRp2104
(dp2105
g54
(dp2106
g62
I3
ssg63
g2100
sg56
(lp2107
S'7'
asbasbasbag49
(g65
g51
NtRp2108
(dp2109
g54
(dp2110
sg63
g2067
sg56
(lp2111
g49
(g70
g51
NtRp2112
(dp2113
g54
(dp2114
sg63
g2108
sg56
(lp2115
g49
(g50
g51
NtRp2116
(dp2117
g54
(dp2118
g62
I3
ssg63
g2112
sg56
(lp2119
S'datetime.datetime(2012, 3, 4, 22, 12, 8)'
p2120
asbasbasbag49
(g65
g51
NtRp2121
(dp2122
g54
(dp2123
sg63
g2067
sg56
(lp2124
g49
(g70
g51
NtRp2125
(dp2126
g54
(dp2127
sg63
g2121
sg56
(lp2128
g49
(g50
g51
NtRp2129
(dp2130
g54
(dp2131
g62
I3
ssg63
g2125
sg56
(lp2132
g1522
asbasbasbasbasbasbasbasbasbasbasbag49
(g65
g51
NtRp2133
(dp2134
g54
(dp2135
sg63
g59
sg56
(lp2136
g49
(g70
g51
NtRp2137
(dp2138
g54
(dp2139
g74
g75
ssg63
g2133
sg56
(lp2140
S'is_https'
p2141
asbag49
(g70
g51
NtRp2142
(dp2143
g54
(dp2144
g81
g82
ssg63
g2133
sg56
(lp2145
S':'
asbag49
(g70
g51
NtRp2146
(dp2147
g54
(dp2148
sg63
g2133
sg56
(lp2149
g49
(g50
g51
NtRp2150
(dp2151
g54
(dp2152
g62
I5
ssg63
g2146
sg56
(lp2153
g92
asbasbasbag49
(g65
g51
NtRp2154
(dp2155
g54
(dp2156
sg63
g59
sg56
(lp2157
g49
(g70
g51
NtRp2158
(dp2159
g54
(dp2160
g74
g75
ssg63
g2154
sg56
(lp2161
S'is_local'
p2162
asbag49
(g70
g51
NtRp2163
(dp2164
g54
(dp2165
g81
g82
ssg63
g2154
sg56
(lp2166
S':'
asbag49
(g70
g51
NtRp2167
(dp2168
g54
(dp2169
sg63
g2154
sg56
(lp2170
g49
(g50
g51
NtRp2171
(dp2172
g54
(dp2173
g62
I5
ssg63
g2167
sg56
(lp2174
g1631
asbasbasbag49
(g65
g51
NtRp2175
(dp2176
g54
(dp2177
sg63
g59
sg56
(lp2178
g49
(g70
g51
NtRp2179
(dp2180
g54
(dp2181
g74
g75
ssg63
g2175
sg56
(lp2182
S'is_restful'
p2183
asbag49
(g70
g51
NtRp2184
(dp2185
g54
(dp2186
g81
g82
ssg63
g2175
sg56
(lp2187
S':'
asbag49
(g70
g51
NtRp2188
(dp2189
g54
(dp2190
sg63
g2175
sg56
(lp2191
g49
(g50
g51
NtRp2192
(dp2193
g54
(dp2194
g62
I5
ssg63
g2188
sg56
(lp2195
g92
asbasbasbag49
(g65
g51
NtRp2196
(dp2197
g54
(dp2198
sg63
g59
sg56
(lp2199
g49
(g70
g51
NtRp2200
(dp2201
g54
(dp2202
g74
g75
ssg63
g2196
sg56
(lp2203
S'now'
p2204
asbag49
(g70
g51
NtRp2205
(dp2206
g54
(dp2207
g81
g82
ssg63
g2196
sg56
(lp2208
S':'
asbag49
(g70
g51
NtRp2209
(dp2210
g54
(dp2211
sg63
g2196
sg56
(lp2212
g49
(g50
g51
NtRp2213
(dp2214
g54
(dp2215
g62
I5
ssg63
g2209
sg56
(lp2216
S'datetime.datetime(2012, 7, 13, 11, 52, 54, 697000)'
p2217
asbasbasbag49
(g65
g51
NtRp2218
(dp2219
g54
(dp2220
sg63
g59
sg56
(lp2221
g49
(g70
g51
NtRp2222
(dp2223
g54
(dp2224
g74
g75
ssg63
g2218
sg56
(lp2225
S'post_vars'
p2226
asbag49
(g70
g51
NtRp2227
(dp2228
g54
(dp2229
g81
g82
ssg63
g2218
sg56
(lp2230
S':'
asbag49
(g70
g51
NtRp2231
(dp2232
g54
(dp2233
sg63
g2218
sg56
(lp2234
g49
(g50
g51
NtRp2235
(dp2236
g54
(dp2237
g62
I5
ssg63
g2231
sg56
(lp2238
g49
(g58
g51
NtRp2239
(dp2240
g54
(dp2241
g62
I4
ssg63
Nsg56
(lp2242
sbasbasbasbag49
(g65
g51
NtRp2243
(dp2244
g54
(dp2245
sg63
g59
sg56
(lp2246
g49
(g70
g51
NtRp2247
(dp2248
g54
(dp2249
g74
g75
ssg63
g2243
sg56
(lp2250
S'raw_extension'
p2251
asbag49
(g70
g51
NtRp2252
(dp2253
g54
(dp2254
g81
g82
ssg63
g2243
sg56
(lp2255
S':'
asbag49
(g70
g51
NtRp2256
(dp2257
g54
(dp2258
sg63
g2243
sg56
(lp2259
g49
(g50
g51
NtRp2260
(dp2261
g54
(dp2262
g62
I5
ssg63
g2256
sg56
(lp2263
g1745
asbasbasbag49
(g65
g51
NtRp2264
(dp2265
g54
(dp2266
sg63
g59
sg56
(lp2267
g49
(g70
g51
NtRp2268
(dp2269
g54
(dp2270
g74
g75
ssg63
g2264
sg56
(lp2271
S'url'
p2272
asbag49
(g70
g51
NtRp2273
(dp2274
g54
(dp2275
g81
g82
ssg63
g2264
sg56
(lp2276
S':'
asbag49
(g70
g51
NtRp2277
(dp2278
g54
(dp2279
sg63
g2264
sg56
(lp2280
g49
(g50
g51
NtRp2281
(dp2282
g54
(dp2283
g62
I5
ssg63
g2277
sg56
(lp2284
S'/Golf_2/default/settings.html'
p2285
asbasbasbag49
(g65
g51
NtRp2286
(dp2287
g54
(dp2288
sg63
g59
sg56
(lp2289
g49
(g70
g51
NtRp2290
(dp2291
g54
(dp2292
g74
g75
ssg63
g2286
sg56
(lp2293
S'utcnow'
p2294
asbag49
(g70
g51
NtRp2295
(dp2296
g54
(dp2297
g81
g82
ssg63
g2286
sg56
(lp2298
S':'
asbag49
(g70
g51
NtRp2299
(dp2300
g54
(dp2301
sg63
g2286
sg56
(lp2302
g49
(g50
g51
NtRp2303
(dp2304
g54
(dp2305
g62
I5
ssg63
g2299
sg56
(lp2306
S'datetime.datetime(2012, 7, 13, 6, 22, 54, 697000)'
p2307
asbasbasbag49
(g65
g51
NtRp2308
(dp2309
g54
(dp2310
sg63
g59
sg56
(lp2311
g49
(g70
g51
NtRp2312
(dp2313
g54
(dp2314
g74
g75
ssg63
g2308
sg56
(lp2315
S'uuid'
p2316
asbag49
(g70
g51
NtRp2317
(dp2318
g54
(dp2319
g81
g82
ssg63
g2308
sg56
(lp2320
S':'
asbag49
(g70
g51
NtRp2321
(dp2322
g54
(dp2323
sg63
g2308
sg56
(lp2324
g49
(g50
g51
NtRp2325
(dp2326
g54
(dp2327
g62
I5
ssg63
g2321
sg56
(lp2328
S'Golf_2/127.0.0.1.2012-07-13.11-52-54.0d35c44d-6b7a-4e61-adac-ae1113314d59'
p2329
asbasbasbag49
(g65
g51
NtRp2330
(dp2331
g54
(dp2332
sg63
g59
sg56
(lp2333
g49
(g70
g51
NtRp2334
(dp2335
g54
(dp2336
g74
g75
ssg63
g2330
sg56
(lp2337
S'vars'
p2338
asbag49
(g70
g51
NtRp2339
(dp2340
g54
(dp2341
g81
g82
ssg63
g2330
sg56
(lp2342
S':'
asbag49
(g70
g51
NtRp2343
(dp2344
g54
(dp2345
sg63
g2330
sg56
(lp2346
g49
(g50
g51
NtRp2347
(dp2348
g54
(dp2349
g62
I5
ssg63
g2343
sg56
(lp2350
g49
(g58
g51
NtRp2351
(dp2352
g54
(dp2353
g62
I4
ssg63
Nsg56
(lp2354
sbasbasbasbag49
(g65
g51
NtRp2355
(dp2356
g54
(dp2357
sg63
g59
sg56
(lp2358
g49
(g70
g51
NtRp2359
(dp2360
g54
(dp2361
g74
g75
ssg63
g2355
sg56
(lp2362
S'wsgi'
p2363
asbag49
(g70
g51
NtRp2364
(dp2365
g54
(dp2366
g81
g82
ssg63
g2355
sg56
(lp2367
S':'
asbag49
(g70
g51
NtRp2368
(dp2369
g54
(dp2370
sg63
g2355
sg56
(lp2371
g49
(g50
g51
NtRp2372
(dp2373
g54
(dp2374
g62
I5
ssg63
g2368
sg56
(lp2375
g49
(g58
g51
NtRp2376
(dp2377
g54
(dp2378
g62
I4
ssg63
Nsg56
(lp2379
g49
(g65
g51
NtRp2380
(dp2381
g54
(dp2382
sg63
g2376
sg56
(lp2383
g49
(g70
g51
NtRp2384
(dp2385
g54
(dp2386
g74
g75
ssg63
g2380
sg56
(lp2387
S'environ'
p2388
asbag49
(g70
g51
NtRp2389
(dp2390
g54
(dp2391
g81
g82
ssg63
g2380
sg56
(lp2392
S':'
asbag49
(g70
g51
NtRp2393
(dp2394
g54
(dp2395
sg63
g2380
sg56
(lp2396
g49
(g50
g51
NtRp2397
(dp2398
g54
(dp2399
g62
I4
ssg63
g2393
sg56
(lp2400
g49
(g58
g51
NtRp2401
(dp2402
g54
(dp2403
g62
I3
ssg63
Nsg56
(lp2404
g49
(g65
g51
NtRp2405
(dp2406
g54
(dp2407
sg63
g2401
sg56
(lp2408
g49
(g70
g51
NtRp2409
(dp2410
g54
(dp2411
g74
g75
ssg63
g2405
sg56
(lp2412
S'HTTP_ACCEPT'
p2413
asbag49
(g70
g51
NtRp2414
(dp2415
g54
(dp2416
g81
g82
ssg63
g2405
sg56
(lp2417
S':'
asbag49
(g70
g51
NtRp2418
(dp2419
g54
(dp2420
sg63
g2405
sg56
(lp2421
g49
(g50
g51
NtRp2422
(dp2423
g54
(dp2424
g62
I3
ssg63
g2418
sg56
(lp2425
g934
asbasbasbag49
(g65
g51
NtRp2426
(dp2427
g54
(dp2428
sg63
g2401
sg56
(lp2429
g49
(g70
g51
NtRp2430
(dp2431
g54
(dp2432
g74
g75
ssg63
g2426
sg56
(lp2433
S'HTTP_ACCEPT_CHARSET'
p2434
asbag49
(g70
g51
NtRp2435
(dp2436
g54
(dp2437
g81
g82
ssg63
g2426
sg56
(lp2438
S':'
asbag49
(g70
g51
NtRp2439
(dp2440
g54
(dp2441
sg63
g2426
sg56
(lp2442
g49
(g50
g51
NtRp2443
(dp2444
g54
(dp2445
g62
I3
ssg63
g2439
sg56
(lp2446
g956
asbasbasbag49
(g65
g51
NtRp2447
(dp2448
g54
(dp2449
sg63
g2401
sg56
(lp2450
g49
(g70
g51
NtRp2451
(dp2452
g54
(dp2453
g74
g75
ssg63
g2447
sg56
(lp2454
S'HTTP_ACCEPT_ENCODING'
p2455
asbag49
(g70
g51
NtRp2456
(dp2457
g54
(dp2458
g81
g82
ssg63
g2447
sg56
(lp2459
S':'
asbag49
(g70
g51
NtRp2460
(dp2461
g54
(dp2462
sg63
g2447
sg56
(lp2463
g49
(g50
g51
NtRp2464
(dp2465
g54
(dp2466
g62
I3
ssg63
g2460
sg56
(lp2467
g978
asbasbasbag49
(g65
g51
NtRp2468
(dp2469
g54
(dp2470
sg63
g2401
sg56
(lp2471
g49
(g70
g51
NtRp2472
(dp2473
g54
(dp2474
g74
g75
ssg63
g2468
sg56
(lp2475
S'HTTP_ACCEPT_LANGUAGE'
p2476
asbag49
(g70
g51
NtRp2477
(dp2478
g54
(dp2479
g81
g82
ssg63
g2468
sg56
(lp2480
S':'
asbag49
(g70
g51
NtRp2481
(dp2482
g54
(dp2483
sg63
g2468
sg56
(lp2484
g49
(g50
g51
NtRp2485
(dp2486
g54
(dp2487
g62
I3
ssg63
g2481
sg56
(lp2488
g1000
asbasbasbag49
(g65
g51
NtRp2489
(dp2490
g54
(dp2491
sg63
g2401
sg56
(lp2492
g49
(g70
g51
NtRp2493
(dp2494
g54
(dp2495
g74
g75
ssg63
g2489
sg56
(lp2496
S'HTTP_CACHE_CONTROL'
p2497
asbag49
(g70
g51
NtRp2498
(dp2499
g54
(dp2500
g81
g82
ssg63
g2489
sg56
(lp2501
S':'
asbag49
(g70
g51
NtRp2502
(dp2503
g54
(dp2504
sg63
g2489
sg56
(lp2505
g49
(g50
g51
NtRp2506
(dp2507
g54
(dp2508
g62
I3
ssg63
g2502
sg56
(lp2509
g1022
asbasbasbag49
(g65
g51
NtRp2510
(dp2511
g54
(dp2512
sg63
g2401
sg56
(lp2513
g49
(g70
g51
NtRp2514
(dp2515
g54
(dp2516
g74
g75
ssg63
g2510
sg56
(lp2517
S'HTTP_CONNECTION'
p2518
asbag49
(g70
g51
NtRp2519
(dp2520
g54
(dp2521
g81
g82
ssg63
g2510
sg56
(lp2522
S':'
asbag49
(g70
g51
NtRp2523
(dp2524
g54
(dp2525
sg63
g2510
sg56
(lp2526
g49
(g50
g51
NtRp2527
(dp2528
g54
(dp2529
g62
I3
ssg63
g2523
sg56
(lp2530
g1044
asbasbasbag49
(g65
g51
NtRp2531
(dp2532
g54
(dp2533
sg63
g2401
sg56
(lp2534
g49
(g70
g51
NtRp2535
(dp2536
g54
(dp2537
g74
g75
ssg63
g2531
sg56
(lp2538
S'HTTP_COOKIE'
p2539
asbag49
(g70
g51
NtRp2540
(dp2541
g54
(dp2542
g81
g82
ssg63
g2531
sg56
(lp2543
S':'
asbag49
(g70
g51
NtRp2544
(dp2545
g54
(dp2546
sg63
g2531
sg56
(lp2547
g49
(g50
g51
NtRp2548
(dp2549
g54
(dp2550
g62
I3
ssg63
g2544
sg56
(lp2551
g1066
asbasbasbag49
(g65
g51
NtRp2552
(dp2553
g54
(dp2554
sg63
g2401
sg56
(lp2555
g49
(g70
g51
NtRp2556
(dp2557
g54
(dp2558
g74
g75
ssg63
g2552
sg56
(lp2559
S'HTTP_HOST'
p2560
asbag49
(g70
g51
NtRp2561
(dp2562
g54
(dp2563
g81
g82
ssg63
g2552
sg56
(lp2564
S':'
asbag49
(g70
g51
NtRp2565
(dp2566
g54
(dp2567
sg63
g2552
sg56
(lp2568
g49
(g50
g51
NtRp2569
(dp2570
g54
(dp2571
g62
I3
ssg63
g2565
sg56
(lp2572
g1088
asbasbasbag49
(g65
g51
NtRp2573
(dp2574
g54
(dp2575
sg63
g2401
sg56
(lp2576
g49
(g70
g51
NtRp2577
(dp2578
g54
(dp2579
g74
g75
ssg63
g2573
sg56
(lp2580
S'HTTP_REFERER'
p2581
asbag49
(g70
g51
NtRp2582
(dp2583
g54
(dp2584
g81
g82
ssg63
g2573
sg56
(lp2585
S':'
asbag49
(g70
g51
NtRp2586
(dp2587
g54
(dp2588
sg63
g2573
sg56
(lp2589
g49
(g50
g51
NtRp2590
(dp2591
g54
(dp2592
g62
I3
ssg63
g2586
sg56
(lp2593
g1110
asbasbasbag49
(g65
g51
NtRp2594
(dp2595
g54
(dp2596
sg63
g2401
sg56
(lp2597
g49
(g70
g51
NtRp2598
(dp2599
g54
(dp2600
g74
g75
ssg63
g2594
sg56
(lp2601
S'HTTP_USER_AGENT'
p2602
asbag49
(g70
g51
NtRp2603
(dp2604
g54
(dp2605
g81
g82
ssg63
g2594
sg56
(lp2606
S':'
asbag49
(g70
g51
NtRp2607
(dp2608
g54
(dp2609
sg63
g2594
sg56
(lp2610
g49
(g50
g51
NtRp2611
(dp2612
g54
(dp2613
g62
I3
ssg63
g2607
sg56
(lp2614
g1132
asbasbasbag49
(g65
g51
NtRp2615
(dp2616
g54
(dp2617
sg63
g2401
sg56
(lp2618
g49
(g70
g51
NtRp2619
(dp2620
g54
(dp2621
g74
g75
ssg63
g2615
sg56
(lp2622
S'PATH_INFO'
p2623
asbag49
(g70
g51
NtRp2624
(dp2625
g54
(dp2626
g81
g82
ssg63
g2615
sg56
(lp2627
S':'
asbag49
(g70
g51
NtRp2628
(dp2629
g54
(dp2630
sg63
g2615
sg56
(lp2631
g49
(g50
g51
NtRp2632
(dp2633
g54
(dp2634
g62
I3
ssg63
g2628
sg56
(lp2635
g1196
asbasbasbag49
(g65
g51
NtRp2636
(dp2637
g54
(dp2638
sg63
g2401
sg56
(lp2639
g49
(g70
g51
NtRp2640
(dp2641
g54
(dp2642
g74
g75
ssg63
g2636
sg56
(lp2643
S'QUERY_STRING'
p2644
asbag49
(g70
g51
NtRp2645
(dp2646
g54
(dp2647
g81
g82
ssg63
g2636
sg56
(lp2648
S':'
asbag49
(g70
g51
NtRp2649
(dp2650
g54
(dp2651
sg63
g2636
sg56
(lp2652
g49
(g50
g51
NtRp2653
(dp2654
g54
(dp2655
g62
I3
ssg63
g2649
sg56
(lp2656
S''
asbasbasbag49
(g65
g51
NtRp2657
(dp2658
g54
(dp2659
sg63
g2401
sg56
(lp2660
g49
(g70
g51
NtRp2661
(dp2662
g54
(dp2663
g74
g75
ssg63
g2657
sg56
(lp2664
S'REMOTE_ADDR'
p2665
asbag49
(g70
g51
NtRp2666
(dp2667
g54
(dp2668
g81
g82
ssg63
g2657
sg56
(lp2669
S':'
asbag49
(g70
g51
NtRp2670
(dp2671
g54
(dp2672
sg63
g2657
sg56
(lp2673
g49
(g50
g51
NtRp2674
(dp2675
g54
(dp2676
g62
I3
ssg63
g2670
sg56
(lp2677
g182
asbasbasbag49
(g65
g51
NtRp2678
(dp2679
g54
(dp2680
sg63
g2401
sg56
(lp2681
g49
(g70
g51
NtRp2682
(dp2683
g54
(dp2684
g74
g75
ssg63
g2678
sg56
(lp2685
S'REMOTE_PORT'
p2686
asbag49
(g70
g51
NtRp2687
(dp2688
g54
(dp2689
g81
g82
ssg63
g2678
sg56
(lp2690
S':'
asbag49
(g70
g51
NtRp2691
(dp2692
g54
(dp2693
sg63
g2678
sg56
(lp2694
g49
(g50
g51
NtRp2695
(dp2696
g54
(dp2697
g62
I3
ssg63
g2691
sg56
(lp2698
g1260
asbasbasbag49
(g65
g51
NtRp2699
(dp2700
g54
(dp2701
sg63
g2401
sg56
(lp2702
g49
(g70
g51
NtRp2703
(dp2704
g54
(dp2705
g74
g75
ssg63
g2699
sg56
(lp2706
S'REQUEST_METHOD'
p2707
asbag49
(g70
g51
NtRp2708
(dp2709
g54
(dp2710
g81
g82
ssg63
g2699
sg56
(lp2711
S':'
asbag49
(g70
g51
NtRp2712
(dp2713
g54
(dp2714
sg63
g2699
sg56
(lp2715
g49
(g50
g51
NtRp2716
(dp2717
g54
(dp2718
g62
I3
ssg63
g2712
sg56
(lp2719
g1282
asbasbasbag49
(g65
g51
NtRp2720
(dp2721
g54
(dp2722
sg63
g2401
sg56
(lp2723
g49
(g70
g51
NtRp2724
(dp2725
g54
(dp2726
g74
g75
ssg63
g2720
sg56
(lp2727
S'SCRIPT_NAME'
p2728
asbag49
(g70
g51
NtRp2729
(dp2730
g54
(dp2731
g81
g82
ssg63
g2720
sg56
(lp2732
S':'
asbag49
(g70
g51
NtRp2733
(dp2734
g54
(dp2735
sg63
g2720
sg56
(lp2736
g49
(g50
g51
NtRp2737
(dp2738
g54
(dp2739
g62
I3
ssg63
g2733
sg56
(lp2740
S''
asbasbasbag49
(g65
g51
NtRp2741
(dp2742
g54
(dp2743
sg63
g2401
sg56
(lp2744
g49
(g70
g51
NtRp2745
(dp2746
g54
(dp2747
g74
g75
ssg63
g2741
sg56
(lp2748
S'SERVER_NAME'
p2749
asbag49
(g70
g51
NtRp2750
(dp2751
g54
(dp2752
g81
g82
ssg63
g2741
sg56
(lp2753
S':'
asbag49
(g70
g51
NtRp2754
(dp2755
g54
(dp2756
sg63
g2741
sg56
(lp2757
g49
(g50
g51
NtRp2758
(dp2759
g54
(dp2760
g62
I3
ssg63
g2754
sg56
(lp2761
g1325
asbasbasbag49
(g65
g51
NtRp2762
(dp2763
g54
(dp2764
sg63
g2401
sg56
(lp2765
g49
(g70
g51
NtRp2766
(dp2767
g54
(dp2768
g74
g75
ssg63
g2762
sg56
(lp2769
S'SERVER_PORT'
p2770
asbag49
(g70
g51
NtRp2771
(dp2772
g54
(dp2773
g81
g82
ssg63
g2762
sg56
(lp2774
S':'
asbag49
(g70
g51
NtRp2775
(dp2776
g54
(dp2777
sg63
g2762
sg56
(lp2778
g49
(g50
g51
NtRp2779
(dp2780
g54
(dp2781
g62
I3
ssg63
g2775
sg56
(lp2782
g1347
asbasbasbag49
(g65
g51
NtRp2783
(dp2784
g54
(dp2785
sg63
g2401
sg56
(lp2786
g49
(g70
g51
NtRp2787
(dp2788
g54
(dp2789
g74
g75
ssg63
g2783
sg56
(lp2790
S'SERVER_PROTOCOL'
p2791
asbag49
(g70
g51
NtRp2792
(dp2793
g54
(dp2794
g81
g82
ssg63
g2783
sg56
(lp2795
S':'
asbag49
(g70
g51
NtRp2796
(dp2797
g54
(dp2798
sg63
g2783
sg56
(lp2799
g49
(g50
g51
NtRp2800
(dp2801
g54
(dp2802
g62
I3
ssg63
g2796
sg56
(lp2803
g1369
asbasbasbag49
(g65
g51
NtRp2804
(dp2805
g54
(dp2806
sg63
g2401
sg56
(lp2807
g49
(g70
g51
NtRp2808
(dp2809
g54
(dp2810
g74
g75
ssg63
g2804
sg56
(lp2811
S'SERVER_SOFTWARE'
p2812
asbag49
(g70
g51
NtRp2813
(dp2814
g54
(dp2815
g81
g82
ssg63
g2804
sg56
(lp2816
S':'
asbag49
(g70
g51
NtRp2817
(dp2818
g54
(dp2819
sg63
g2804
sg56
(lp2820
g49
(g50
g51
NtRp2821
(dp2822
g54
(dp2823
g62
I3
ssg63
g2817
sg56
(lp2824
g1391
asbasbasbag49
(g65
g51
NtRp2825
(dp2826
g54
(dp2827
sg63
g2401
sg56
(lp2828
g49
(g70
g51
NtRp2829
(dp2830
g54
(dp2831
g74
g75
ssg63
g2825
sg56
(lp2832
S'wsgi.errors'
p2833
asbag49
(g70
g51
NtRp2834
(dp2835
g54
(dp2836
g81
g82
ssg63
g2825
sg56
(lp2837
S':'
asbag49
(g70
g51
NtRp2838
(dp2839
g54
(dp2840
sg63
g2825
sg56
(lp2841
g49
(g50
g51
NtRp2842
(dp2843
g54
(dp2844
g62
I3
ssg63
g2838
sg56
(lp2845
S"<open file '<stderr>', mode 'w' at 0x014700B0>"
p2846
asbasbasbag49
(g65
g51
NtRp2847
(dp2848
g54
(dp2849
sg63
g2401
sg56
(lp2850
g49
(g70
g51
NtRp2851
(dp2852
g54
(dp2853
g74
g75
ssg63
g2847
sg56
(lp2854
S'wsgi.file_wrapper'
p2855
asbag49
(g70
g51
NtRp2856
(dp2857
g54
(dp2858
g81
g82
ssg63
g2847
sg56
(lp2859
S':'
asbag49
(g70
g51
NtRp2860
(dp2861
g54
(dp2862
sg63
g2847
sg56
(lp2863
g49
(g50
g51
NtRp2864
(dp2865
g54
(dp2866
g62
I3
ssg63
g2860
sg56
(lp2867
S'<class wsgiref.util.FileWrapper at 0x024DC2D0>'
p2868
asbasbasbag49
(g65
g51
NtRp2869
(dp2870
g54
(dp2871
sg63
g2401
sg56
(lp2872
g49
(g70
g51
NtRp2873
(dp2874
g54
(dp2875
g74
g75
ssg63
g2869
sg56
(lp2876
S'wsgi.input'
p2877
asbag49
(g70
g51
NtRp2878
(dp2879
g54
(dp2880
g81
g82
ssg63
g2869
sg56
(lp2881
S':'
asbag49
(g70
g51
NtRp2882
(dp2883
g54
(dp2884
sg63
g2869
sg56
(lp2885
g49
(g50
g51
NtRp2886
(dp2887
g54
(dp2888
g62
I3
ssg63
g2882
sg56
(lp2889
S'<cStringIO.StringO object at 0x05E667C0>'
p2890
asbasbasbag49
(g65
g51
NtRp2891
(dp2892
g54
(dp2893
sg63
g2401
sg56
(lp2894
g49
(g70
g51
NtRp2895
(dp2896
g54
(dp2897
g74
g75
ssg63
g2891
sg56
(lp2898
S'wsgi.multiprocess'
p2899
asbag49
(g70
g51
NtRp2900
(dp2901
g54
(dp2902
g81
g82
ssg63
g2891
sg56
(lp2903
S':'
asbag49
(g70
g51
NtRp2904
(dp2905
g54
(dp2906
sg63
g2891
sg56
(lp2907
g49
(g50
g51
NtRp2908
(dp2909
g54
(dp2910
g62
I3
ssg63
g2904
sg56
(lp2911
g92
asbasbasbag49
(g65
g51
NtRp2912
(dp2913
g54
(dp2914
sg63
g2401
sg56
(lp2915
g49
(g70
g51
NtRp2916
(dp2917
g54
(dp2918
g74
g75
ssg63
g2912
sg56
(lp2919
S'wsgi.multithread'
p2920
asbag49
(g70
g51
NtRp2921
(dp2922
g54
(dp2923
g81
g82
ssg63
g2912
sg56
(lp2924
S':'
asbag49
(g70
g51
NtRp2925
(dp2926
g54
(dp2927
sg63
g2912
sg56
(lp2928
g49
(g50
g51
NtRp2929
(dp2930
g54
(dp2931
g62
I3
ssg63
g2925
sg56
(lp2932
g1631
asbasbasbag49
(g65
g51
NtRp2933
(dp2934
g54
(dp2935
sg63
g2401
sg56
(lp2936
g49
(g70
g51
NtRp2937
(dp2938
g54
(dp2939
g74
g75
ssg63
g2933
sg56
(lp2940
S'wsgi.run_once'
p2941
asbag49
(g70
g51
NtRp2942
(dp2943
g54
(dp2944
g81
g82
ssg63
g2933
sg56
(lp2945
S':'
asbag49
(g70
g51
NtRp2946
(dp2947
g54
(dp2948
sg63
g2933
sg56
(lp2949
g49
(g50
g51
NtRp2950
(dp2951
g54
(dp2952
g62
I3
ssg63
g2946
sg56
(lp2953
g92
asbasbasbag49
(g65
g51
NtRp2954
(dp2955
g54
(dp2956
sg63
g2401
sg56
(lp2957
g49
(g70
g51
NtRp2958
(dp2959
g54
(dp2960
g74
g75
ssg63
g2954
sg56
(lp2961
S'wsgi.url_scheme'
p2962
asbag49
(g70
g51
NtRp2963
(dp2964
g54
(dp2965
g81
g82
ssg63
g2954
sg56
(lp2966
S':'
asbag49
(g70
g51
NtRp2967
(dp2968
g54
(dp2969
sg63
g2954
sg56
(lp2970
g49
(g50
g51
NtRp2971
(dp2972
g54
(dp2973
g62
I3
ssg63
g2967
sg56
(lp2974
g1674
asbasbasbag49
(g65
g51
NtRp2975
(dp2976
g54
(dp2977
sg63
g2401
sg56
(lp2978
g49
(g70
g51
NtRp2979
(dp2980
g54
(dp2981
g74
g75
ssg63
g2975
sg56
(lp2982
S'wsgi.version'
p2983
asbag49
(g70
g51
NtRp2984
(dp2985
g54
(dp2986
g81
g82
ssg63
g2975
sg56
(lp2987
S':'
asbag49
(g70
g51
NtRp2988
(dp2989
g54
(dp2990
sg63
g2975
sg56
(lp2991
g49
(g50
g51
NtRp2992
(dp2993
g54
(dp2994
g62
I3
ssg63
g2988
sg56
(lp2995
S'1'
asbasbasbasbasbasbasbasbasbasbasbasbasbsS'frames'
p2996
(lp2997
(dp2998
S'file'
p2999
S'C:\\Users\\avjain\\Downloads\\web2py\\gluon\\restricted.py'
p3000
sS'dump'
p3001
(dp3002
sS'lnum'
p3003
I205
sS'lines'
p3004
(dp3005
sS'call'
p3006
S'(code=\'response.write(\\\'<!DOCTYPE html PUBLIC "-//W3C//D...div> \\\\r\\\\n  </body>\\\\r\\\\n</html>\\\\r\\\\n\\\', escape=False)\', environment={\'A\': <class \'gluon.html.A\'>, \'Auth\': <class \'gluon.tools.Auth\'>, \'B\': <class \'gluon.html.B\'>, \'BEAUTIFY\': <class \'gluon.html.BEAUTIFY\'>, \'BODY\': <class \'gluon.html.BODY\'>, \'BR\': <class \'gluon.html.BR\'>, \'BUTTON\': <class \'gluon.html.BUTTON\'>, \'CAT\': <class \'gluon.html.CAT\'>, \'CENTER\': <class \'gluon.html.CENTER\'>, \'CLEANUP\': <class \'gluon.validators.CLEANUP\'>, ...}, layer=r\'C:\\Users\\avjain\\Downloads\\web2py\\applications\\Golf_2\\views\\default/settings.html\')'
p3007
sS'func'
p3008
S'restricted'
p3009
sa(dp3010
g2999
S'C:\\Users\\avjain\\Downloads\\web2py\\applications\\Golf_2\\views\\default\\settings.html'
p3011
sg3001
(dp3012
sg3003
I26
sg3004
(dp3013
I17
S'    response.write(\' shape="rect">Logout</a>\\r\\n                        </li>\\r\\n                    \', escape=False)'
p3014
sI18
S'else:'
p3015
sI19
S"    response.write('\\r\\n                        <li>\\r\\n                              <a href=', escape=False)"
p3016
sI20
S"    response.write(URL('login'))"
p3017
sI21
S'    response.write(\' shape="rect">Login</a>\\r\\n                        </li>                   \\r\\n                        <li>\\r\\n                            <a href=\', escape=False)'
p3018
sI22
S"    response.write(URL('register'))"
p3019
sI23
S'    response.write(\' shape="rect">Register</a>\\r\\n                        </li>\\r\\n                    \', escape=False)'
p3020
sI24
S'    pass'
p3021
sI25
S'response.write(\'\\r\\n                    <li>\\r\\n                      <a href="settings.html" shape="rect">Settings</a>\\r\\n                    </li>\\r\\n                    <li>\\r\\n                      <a href="#" shape="rect">Services</a>\\r\\n                    </li>\\r\\n                    <li>\\r\\n                      <a href="#" shape="rect">News</a>\\r\\n                    </li>\\r\\n                    <li>\\r\\n                      <a href="#" shape="rect">About us</a>\\r\\n                    </li>\\r\\n                    <li>\\r\\n                      <a href="#" shape="rect">Support</a>\\r\\n                    </li>\\r\\n                    <li>\\r\\n                      <a href="#" shape="rect">Testimonials</a>\\r\\n                    </li>\\r\\n                    <li>\\r\\n                      <a href="#" shape="rect">Site map</a>\\r\\n                    </li>\\r\\n                    <li>\\r\\n                      <a href="#" shape="rect">Contact us</a>\\r\\n                    </li>\\r\\n                  </ul> \\r\\n                </div> \\r\\n              </div>  \\r\\n              <div id="center"> \\r\\n                <div id="welcome"> \\r\\n                  <h3 style="text-align:center">Customize your notification settings</h3><br><br>\\r\\n                  <div>\\r\\n                      <form name="settingsForm" method="post">\\r\\n                          \', escape=False)'
p3022
sI26
S'response.write(setting[0])'
p3023
sI27
S'response.write(\'\\r\\n                          <input type="checkbox" name="notifcation" value="True">Booking Notification</input><br />\\r\\n                          <input type="checkbox" name="notifcation">Offers Notification</input><br />\\r\\n                          <input type="checkbox" name="notifcation">Sms Notification</input><br />\\r\\n                          <input type="checkbox" name="notifcation">News Letters:</input><br /><br />\\r\\n                          <input type="submit" name="submit" value="Done" title="click to save settings" />                                                                              \\r\\n                      </form>\\r\\n                  </div>\\r\\n                 \\r\\n                  <!--p>This template is free. You are free to use it, share it, redistribute it, modify it in any way you want as long as you \\r\\n                    <strong>keep a link back to doTemplate Website</strong> in the footer. You can remove this link by making a $10 \\r\\n                    <a href="http://www.dotemplate.com/dt/index.jsp#donate" target="_blank" shape="rect">donation</a>.\\r\\n                  </p>  \\r\\n                  <h1>Title 1</h1>  \\r\\n                  <p>Lorem ipsum dolor sit amet, consectetuer adipiscing elit. Sed non risus. Suspendisse lectus tortor, dignissim sit amet, adipiscing nec, ultricies sed, dolor. Cras elementum ultrices diam. Maecenas ligula massa, varius a, semper congue, euismod non, mi.</p -->  \\r\\n                  <div> \\r\\n                    <!--img src=\', escape=False)'
p3024
sI28
S'response.write(URL(r=request,c=\'static\',f="images/flower-1.jpg"))'
p3025
sI29
S'response.write(\' style="float:right;margin:0 0 0 15px;padding:5px;border:1px solid #444" />  \\r\\n                    <p>Sed ut perspiciatis unde omnis iste natus error sit voluptatem accusantium doloremque laudantium, totam rem aperiam, eaque ipsa quae ab illo inventore veritatis et quasi architecto beatae vitae dicta sunt explicabo. Nemo enim ipsam voluptatem quia voluptas sit aspernatur aut odit aut fugit, sed quia consequuntur magni dolores eos qui ratione voluptatem sequi nesciunt. Lorem ipsum dolor sit amet, consectetuer adipiscing elit. Sed non risus. Suspendisse lectus tortor, dignissim sit amet, adipiscing nec, ultricies sed, dolor.</p> \\r\\n                  </div>  \\r\\n                  <h2>Title 2</h2>  \\r\\n                  <p>Lorem ipsum dolor sit amet, consectetuer adipiscing elit. Sed non risus. Suspendisse lectus tortor, dignissim sit amet, adipiscing nec, ultricies sed, dolor. Cras elementum ultrices diam. Maecenas ligula massa, varius a, semper congue, euismod non, mi.</p>  \\r\\n                  <h3>Title 3</h3>  \\r\\n                  <p>Lorem ipsum dolor sit amet, consectetuer adipiscing elit. Sed non risus. Suspendisse lectus tortor, dignissim sit amet, adipiscing nec, ultricies sed, dolor. Cras elementum ultrices diam. Maecenas ligula massa, varius a, semper congue, euismod non, mi.</p -->  \\r\\n                  <p style="clear:both" /> \\r\\n                </div> \\r\\n              </div>  \\r\\n              <div style="clear:both;height:40px"></div> \\r\\n            </div>  \\r\\n            <!-- end content --> \\r\\n          </div>  \\r\\n          <!-- end container --> \\r\\n        </div>  \\r\\n        <div id="footerWrapper"> \\r\\n          <div id="footer"> \\r\\n            <p style="padding-top:10px;"> \\r\\n              <a href="#" shape="rect">Home</a> | \\r\\n              <a href="#" shape="rect">Products</a> | \\r\\n              <a href="#" shape="rect">Services</a> | \\r\\n              <a href="#" shape="rect">News</a> | \\r\\n              <a href="#" shape="rect">About</a> \\r\\n            </p>  \\r\\n            <p> \\r\\n              <!-- \\r\\nDO NOT REMOVE OR MODIFY THE FOOTER LINK BELOW.\\r\\nIf you want to remove this link please make a 10 dollars donation at www.dotemplate.com\\r\\n-->  \\r\\n              <a href="http://www.dotemplate.com" shape="rect">Templates</a> maker\\r\\n            </p> \\r\\n          </div> \\r\\n        </div> \\r\\n      </div> \\r\\n    </div> \\r\\n  </body>\\r\\n</html>\\r\\n\', escape=False)'
p3026
ssg3006
S'()'
p3027
sg3008
S'<module>'
p3028
sa(dp3029
g2999
S'C:\\Users\\avjain\\Downloads\\web2py\\gluon\\dal.py'
p3030
sg3001
(dp3031
sg3003
I7755
sg3004
(dp3032
sg3006
S'(self=<gluon.dal.Rows object at 0x060144D0>, i=0)'
p3033
sg3008
g20
sasS'pyver'
p3034
S'Python 2.5.4: C:\\Users\\avjain\\Downloads\\web2py\\web2py.exe'
p3035
sS'session'
p3036
g49
(g50
g51
NtRp3037
(dp3038
g54
(dp3039
sg56
(lp3040
g49
(g58
g51
NtRp3041
(dp3042
g54
(dp3043
g62
I5
ssg63
Nsg56
(lp3044
g49
(g65
g51
NtRp3045
(dp3046
g54
(dp3047
sg63
g3041
sg56
(lp3048
g49
(g70
g51
NtRp3049
(dp3050
g54
(dp3051
g74
g75
ssg63
g3045
sg56
(lp3052
S'login'
p3053
asbag49
(g70
g51
NtRp3054
(dp3055
g54
(dp3056
g81
g82
ssg63
g3045
sg56
(lp3057
S':'
asbag49
(g70
g51
NtRp3058
(dp3059
g54
(dp3060
sg63
g3045
sg56
(lp3061
g49
(g50
g51
NtRp3062
(dp3063
g54
(dp3064
g62
I5
ssg63
g3058
sg56
(lp3065
g1631
asbasbasbag49
(g65
g51
NtRp3066
(dp3067
g54
(dp3068
sg63
g3041
sg56
(lp3069
g49
(g70
g51
NtRp3070
(dp3071
g54
(dp3072
g74
g75
ssg63
g3066
sg56
(lp3073
S'username'
p3074
asbag49
(g70
g51
NtRp3075
(dp3076
g54
(dp3077
g81
g82
ssg63
g3066
sg56
(lp3078
S':'
asbag49
(g70
g51
NtRp3079
(dp3080
g54
(dp3081
sg63
g3066
sg56
(lp3082
g49
(g50
g51
NtRp3083
(dp3084
g54
(dp3085
g62
I5
ssg63
g3079
sg56
(lp3086
S'Avinash Jain'
p3087
asbasbasbasbasbsS'etype'
p3088
S"<type 'exceptions.IndexError'>"
p3089
sS'date'
p3090
S'Fri Jul 13 11:52:54 2012'
p3091
sS'response'
p3092
g49
(g50
g51
NtRp3093
(dp3094
g54
(dp3095
sg56
(lp3096
g49
(g58
g51
NtRp3097
(dp3098
g54
(dp3099
g62
I5
ssg63
Nsg56
(lp3100
g49
(g65
g51
NtRp3101
(dp3102
g54
(dp3103
sg63
g3097
sg56
(lp3104
g49
(g70
g51
NtRp3105
(dp3106
g54
(dp3107
g74
g75
ssg63
g3101
sg56
(lp3108
g147
asbag49
(g70
g51
NtRp3109
(dp3110
g54
(dp3111
g81
g82
ssg63
g3101
sg56
(lp3112
S':'
asbag49
(g70
g51
NtRp3113
(dp3114
g54
(dp3115
sg63
g3101
sg56
(lp3116
g49
(g50
g51
NtRp3117
(dp3118
g54
(dp3119
g62
I5
ssg63
g3113
sg56
(lp3120
S'<cStringIO.StringO object at 0x060A16C0>'
p3121
asbasbasbag49
(g65
g51
NtRp3122
(dp3123
g54
(dp3124
sg63
g3097
sg56
(lp3125
g49
(g70
g51
NtRp3126
(dp3127
g54
(dp3128
g74
g75
ssg63
g3122
sg56
(lp3129
g213
asbag49
(g70
g51
NtRp3130
(dp3131
g54
(dp3132
g81
g82
ssg63
g3122
sg56
(lp3133
S':'
asbag49
(g70
g51
NtRp3134
(dp3135
g54
(dp3136
sg63
g3122
sg56
(lp3137
g49
(g50
g51
NtRp3138
(dp3139
g54
(dp3140
g62
I5
ssg63
g3134
sg56
(lp3141
g49
(g58
g51
NtRp3142
(dp3143
g54
(dp3144
g62
I4
ssg63
Nsg56
(lp3145
g49
(g65
g51
NtRp3146
(dp3147
g54
(dp3148
sg63
g3142
sg56
(lp3149
g49
(g70
g51
NtRp3150
(dp3151
g54
(dp3152
g74
g75
ssg63
g3146
sg56
(lp3153
S'session_id_golf_2'
p3154
asbag49
(g70
g51
NtRp3155
(dp3156
g54
(dp3157
g81
g82
ssg63
g3146
sg56
(lp3158
S':'
asbag49
(g70
g51
NtRp3159
(dp3160
g54
(dp3161
sg63
g3146
sg56
(lp3162
g49
(g50
g51
NtRp3163
(dp3164
g54
(dp3165
g62
I4
ssg63
g3159
sg56
(lp3166
g49
(g58
g51
NtRp3167
(dp3168
g54
(dp3169
g62
I3
ssg63
Nsg56
(lp3170
g49
(g65
g51
NtRp3171
(dp3172
g54
(dp3173
sg63
g3167
sg56
(lp3174
g49
(g70
g51
NtRp3175
(dp3176
g54
(dp3177
g74
g75
ssg63
g3171
sg56
(lp3178
g263
asbag49
(g70
g51
NtRp3179
(dp3180
g54
(dp3181
g81
g82
ssg63
g3171
sg56
(lp3182
S':'
asbag49
(g70
g51
NtRp3183
(dp3184
g54
(dp3185
sg63
g3171
sg56
(lp3186
g49
(g50
g51
NtRp3187
(dp3188
g54
(dp3189
g62
I3
ssg63
g3183
sg56
(lp3190
S''
asbasbasbag49
(g65
g51
NtRp3191
(dp3192
g54
(dp3193
sg63
g3167
sg56
(lp3194
g49
(g70
g51
NtRp3195
(dp3196
g54
(dp3197
g74
g75
ssg63
g3191
sg56
(lp3198
g284
asbag49
(g70
g51
NtRp3199
(dp3200
g54
(dp3201
g81
g82
ssg63
g3191
sg56
(lp3202
S':'
asbag49
(g70
g51
NtRp3203
(dp3204
g54
(dp3205
sg63
g3191
sg56
(lp3206
g49
(g50
g51
NtRp3207
(dp3208
g54
(dp3209
g62
I3
ssg63
g3203
sg56
(lp3210
S''
asbasbasbag49
(g65
g51
NtRp3211
(dp3212
g54
(dp3213
sg63
g3167
sg56
(lp3214
g49
(g70
g51
NtRp3215
(dp3216
g54
(dp3217
g74
g75
ssg63
g3211
sg56
(lp3218
g305
asbag49
(g70
g51
NtRp3219
(dp3220
g54
(dp3221
g81
g82
ssg63
g3211
sg56
(lp3222
S':'
asbag49
(g70
g51
NtRp3223
(dp3224
g54
(dp3225
sg63
g3211
sg56
(lp3226
g49
(g50
g51
NtRp3227
(dp3228
g54
(dp3229
g62
I3
ssg63
g3223
sg56
(lp3230
S''
asbasbasbag49
(g65
g51
NtRp3231
(dp3232
g54
(dp3233
sg63
g3167
sg56
(lp3234
g49
(g70
g51
NtRp3235
(dp3236
g54
(dp3237
g74
g75
ssg63
g3231
sg56
(lp3238
g326
asbag49
(g70
g51
NtRp3239
(dp3240
g54
(dp3241
g81
g82
ssg63
g3231
sg56
(lp3242
S':'
asbag49
(g70
g51
NtRp3243
(dp3244
g54
(dp3245
sg63
g3231
sg56
(lp3246
g49
(g50
g51
NtRp3247
(dp3248
g54
(dp3249
g62
I3
ssg63
g3243
sg56
(lp3250
S''
asbasbasbag49
(g65
g51
NtRp3251
(dp3252
g54
(dp3253
sg63
g3167
sg56
(lp3254
g49
(g70
g51
NtRp3255
(dp3256
g54
(dp3257
g74
g75
ssg63
g3251
sg56
(lp3258
g347
asbag49
(g70
g51
NtRp3259
(dp3260
g54
(dp3261
g81
g82
ssg63
g3251
sg56
(lp3262
S':'
asbag49
(g70
g51
NtRp3263
(dp3264
g54
(dp3265
sg63
g3251
sg56
(lp3266
g49
(g50
g51
NtRp3267
(dp3268
g54
(dp3269
g62
I3
ssg63
g3263
sg56
(lp3270
S'/'
asbasbasbag49
(g65
g51
NtRp3271
(dp3272
g54
(dp3273
sg63
g3167
sg56
(lp3274
g49
(g70
g51
NtRp3275
(dp3276
g54
(dp3277
g74
g75
ssg63
g3271
sg56
(lp3278
g368
asbag49
(g70
g51
NtRp3279
(dp3280
g54
(dp3281
g81
g82
ssg63
g3271
sg56
(lp3282
S':'
asbag49
(g70
g51
NtRp3283
(dp3284
g54
(dp3285
sg63
g3271
sg56
(lp3286
g49
(g50
g51
NtRp3287
(dp3288
g54
(dp3289
g62
I3
ssg63
g3283
sg56
(lp3290
S''
asbasbasbag49
(g65
g51
NtRp3291
(dp3292
g54
(dp3293
sg63
g3167
sg56
(lp3294
g49
(g70
g51
NtRp3295
(dp3296
g54
(dp3297
g74
g75
ssg63
g3291
sg56
(lp3298
g389
asbag49
(g70
g51
NtRp3299
(dp3300
g54
(dp3301
g81
g82
ssg63
g3291
sg56
(lp3302
S':'
asbag49
(g70
g51
NtRp3303
(dp3304
g54
(dp3305
sg63
g3291
sg56
(lp3306
g49
(g50
g51
NtRp3307
(dp3308
g54
(dp3309
g62
I3
ssg63
g3303
sg56
(lp3310
S''
asbasbasbasbasbasbasbasbasbasbasbag49
(g65
g51
NtRp3311
(dp3312
g54
(dp3313
sg63
g3097
sg56
(lp3314
g49
(g70
g51
NtRp3315
(dp3316
g54
(dp3317
g74
g75
ssg63
g3311
sg56
(lp3318
S'delimiters'
p3319
asbag49
(g70
g51
NtRp3320
(dp3321
g54
(dp3322
g81
g82
ssg63
g3311
sg56
(lp3323
S':'
asbag49
(g70
g51
NtRp3324
(dp3325
g54
(dp3326
sg63
g3311
sg56
(lp3327
g49
(g50
g51
NtRp3328
(dp3329
g54
(dp3330
g62
I5
ssg63
g3324
sg56
(lp3331
g49
(g58
g51
NtRp3332
(dp3333
g54
(dp3334
g62
I4
ssg63
Nsg56
(lp3335
g49
(g65
g51
NtRp3336
(dp3337
g54
(dp3338
sg63
g3332
sg56
(lp3339
g49
(g70
g51
NtRp3340
(dp3341
g54
(dp3342
sg63
g3336
sg56
(lp3343
g49
(g50
g51
NtRp3344
(dp3345
g54
(dp3346
g62
I4
ssg63
g3340
sg56
(lp3347
S'{{'
p3348
asbasbasbag49
(g65
g51
NtRp3349
(dp3350
g54
(dp3351
sg63
g3332
sg56
(lp3352
g49
(g70
g51
NtRp3353
(dp3354
g54
(dp3355
sg63
g3349
sg56
(lp3356
g49
(g50
g51
NtRp3357
(dp3358
g54
(dp3359
g62
I4
ssg63
g3353
sg56
(lp3360
S'}}'
p3361
asbasbasbasbasbasbasbag49
(g65
g51
NtRp3362
(dp3363
g54
(dp3364
sg63
g3097
sg56
(lp3365
g49
(g70
g51
NtRp3366
(dp3367
g54
(dp3368
g74
g75
ssg63
g3362
sg56
(lp3369
S'files'
p3370
asbag49
(g70
g51
NtRp3371
(dp3372
g54
(dp3373
g81
g82
ssg63
g3362
sg56
(lp3374
S':'
asbag49
(g70
g51
NtRp3375
(dp3376
g54
(dp3377
sg63
g3362
sg56
(lp3378
g49
(g50
g51
NtRp3379
(dp3380
g54
(dp3381
g62
I5
ssg63
g3375
sg56
(lp3382
g49
(g58
g51
NtRp3383
(dp3384
g54
(dp3385
g62
I4
ssg63
Nsg56
(lp3386
sbasbasbasbag49
(g65
g51
NtRp3387
(dp3388
g54
(dp3389
sg63
g3097
sg56
(lp3390
g49
(g70
g51
NtRp3391
(dp3392
g54
(dp3393
g74
g75
ssg63
g3387
sg56
(lp3394
S'flash'
p3395
asbag49
(g70
g51
NtRp3396
(dp3397
g54
(dp3398
g81
g82
ssg63
g3387
sg56
(lp3399
S':'
asbag49
(g70
g51
NtRp3400
(dp3401
g54
(dp3402
sg63
g3387
sg56
(lp3403
g49
(g50
g51
NtRp3404
(dp3405
g54
(dp3406
g62
I5
ssg63
g3400
sg56
(lp3407
S''
asbasbasbag49
(g65
g51
NtRp3408
(dp3409
g54
(dp3410
sg63
g3097
sg56
(lp3411
g49
(g70
g51
NtRp3412
(dp3413
g54
(dp3414
g74
g75
ssg63
g3408
sg56
(lp3415
S'generic_patterns'
p3416
asbag49
(g70
g51
NtRp3417
(dp3418
g54
(dp3419
g81
g82
ssg63
g3408
sg56
(lp3420
S':'
asbag49
(g70
g51
NtRp3421
(dp3422
g54
(dp3423
sg63
g3408
sg56
(lp3424
g49
(g50
g51
NtRp3425
(dp3426
g54
(dp3427
g62
I5
ssg63
g3421
sg56
(lp3428
g49
(g58
g51
NtRp3429
(dp3430
g54
(dp3431
g62
I4
ssg63
Nsg56
(lp3432
sbasbasbasbag49
(g65
g51
NtRp3433
(dp3434
g54
(dp3435
sg63
g3097
sg56
(lp3436
g49
(g70
g51
NtRp3437
(dp3438
g54
(dp3439
g74
g75
ssg63
g3433
sg56
(lp3440
S'headers'
p3441
asbag49
(g70
g51
NtRp3442
(dp3443
g54
(dp3444
g81
g82
ssg63
g3433
sg56
(lp3445
S':'
asbag49
(g70
g51
NtRp3446
(dp3447
g54
(dp3448
sg63
g3433
sg56
(lp3449
g49
(g50
g51
NtRp3450
(dp3451
g54
(dp3452
g62
I5
ssg63
g3446
sg56
(lp3453
g49
(g58
g51
NtRp3454
(dp3455
g54
(dp3456
g62
I4
ssg63
Nsg56
(lp3457
g49
(g65
g51
NtRp3458
(dp3459
g54
(dp3460
sg63
g3454
sg56
(lp3461
g49
(g70
g51
NtRp3462
(dp3463
g54
(dp3464
g74
g75
ssg63
g3458
sg56
(lp3465
S'Cache-Control'
p3466
asbag49
(g70
g51
NtRp3467
(dp3468
g54
(dp3469
g81
g82
ssg63
g3458
sg56
(lp3470
S':'
asbag49
(g70
g51
NtRp3471
(dp3472
g54
(dp3473
sg63
g3458
sg56
(lp3474
g49
(g50
g51
NtRp3475
(dp3476
g54
(dp3477
g62
I4
ssg63
g3471
sg56
(lp3478
S'no-store, no-cache, must-revalidate, post-check=0, pre-check=0'
p3479
asbasbasbag49
(g65
g51
NtRp3480
(dp3481
g54
(dp3482
sg63
g3454
sg56
(lp3483
g49
(g70
g51
NtRp3484
(dp3485
g54
(dp3486
g74
g75
ssg63
g3480
sg56
(lp3487
S'Content-Type'
p3488
asbag49
(g70
g51
NtRp3489
(dp3490
g54
(dp3491
g81
g82
ssg63
g3480
sg56
(lp3492
S':'
asbag49
(g70
g51
NtRp3493
(dp3494
g54
(dp3495
sg63
g3480
sg56
(lp3496
g49
(g50
g51
NtRp3497
(dp3498
g54
(dp3499
g62
I4
ssg63
g3493
sg56
(lp3500
S'text/html; charset=utf-8'
p3501
asbasbasbag49
(g65
g51
NtRp3502
(dp3503
g54
(dp3504
sg63
g3454
sg56
(lp3505
g49
(g70
g51
NtRp3506
(dp3507
g54
(dp3508
g74
g75
ssg63
g3502
sg56
(lp3509
S'Expires'
p3510
asbag49
(g70
g51
NtRp3511
(dp3512
g54
(dp3513
g81
g82
ssg63
g3502
sg56
(lp3514
S':'
asbag49
(g70
g51
NtRp3515
(dp3516
g54
(dp3517
sg63
g3502
sg56
(lp3518
g49
(g50
g51
NtRp3519
(dp3520
g54
(dp3521
g62
I4
ssg63
g3515
sg56
(lp3522
S'Fri, 13 Jul 2012 06:22:54 GMT'
p3523
asbasbasbag49
(g65
g51
NtRp3524
(dp3525
g54
(dp3526
sg63
g3454
sg56
(lp3527
g49
(g70
g51
NtRp3528
(dp3529
g54
(dp3530
g74
g75
ssg63
g3524
sg56
(lp3531
S'Pragma'
p3532
asbag49
(g70
g51
NtRp3533
(dp3534
g54
(dp3535
g81
g82
ssg63
g3524
sg56
(lp3536
S':'
asbag49
(g70
g51
NtRp3537
(dp3538
g54
(dp3539
sg63
g3524
sg56
(lp3540
g49
(g50
g51
NtRp3541
(dp3542
g54
(dp3543
g62
I4
ssg63
g3537
sg56
(lp3544
S'no-cache'
p3545
asbasbasbag49
(g65
g51
NtRp3546
(dp3547
g54
(dp3548
sg63
g3454
sg56
(lp3549
g49
(g70
g51
NtRp3550
(dp3551
g54
(dp3552
g74
g75
ssg63
g3546
sg56
(lp3553
S'X-Powered-By'
p3554
asbag49
(g70
g51
NtRp3555
(dp3556
g54
(dp3557
g81
g82
ssg63
g3546
sg56
(lp3558
S':'
asbag49
(g70
g51
NtRp3559
(dp3560
g54
(dp3561
sg63
g3546
sg56
(lp3562
g49
(g50
g51
NtRp3563
(dp3564
g54
(dp3565
g62
I4
ssg63
g3559
sg56
(lp3566
S'web2py'
p3567
asbasbasbasbasbasbasbag49
(g65
g51
NtRp3568
(dp3569
g54
(dp3570
sg63
g3097
sg56
(lp3571
g49
(g70
g51
NtRp3572
(dp3573
g54
(dp3574
g74
g75
ssg63
g3568
sg56
(lp3575
S'menu'
p3576
asbag49
(g70
g51
NtRp3577
(dp3578
g54
(dp3579
g81
g82
ssg63
g3568
sg56
(lp3580
S':'
asbag49
(g70
g51
NtRp3581
(dp3582
g54
(dp3583
sg63
g3568
sg56
(lp3584
g49
(g50
g51
NtRp3585
(dp3586
g54
(dp3587
g62
I5
ssg63
g3581
sg56
(lp3588
g49
(g58
g51
NtRp3589
(dp3590
g54
(dp3591
g62
I4
ssg63
Nsg56
(lp3592
g49
(g65
g51
NtRp3593
(dp3594
g54
(dp3595
sg63
g3589
sg56
(lp3596
g49
(g70
g51
NtRp3597
(dp3598
g54
(dp3599
sg63
g3593
sg56
(lp3600
g49
(g50
g51
NtRp3601
(dp3602
g54
(dp3603
g62
I4
ssg63
g3597
sg56
(lp3604
g49
(g58
g51
NtRp3605
(dp3606
g54
(dp3607
g62
I3
ssg63
Nsg56
(lp3608
g49
(g65
g51
NtRp3609
(dp3610
g54
(dp3611
sg63
g3605
sg56
(lp3612
g49
(g70
g51
NtRp3613
(dp3614
g54
(dp3615
sg63
g3609
sg56
(lp3616
g49
(g50
g51
NtRp3617
(dp3618
g54
(dp3619
g62
I3
ssg63
g3613
sg56
(lp3620
cgluon.languages
lazyT_unpickle
p3621
(S's\x04\x00\x00\x00Home'
tRp3622
asbasbasbag49
(g65
g51
NtRp3623
(dp3624
g54
(dp3625
sg63
g3605
sg56
(lp3626
g49
(g70
g51
NtRp3627
(dp3628
g54
(dp3629
sg63
g3623
sg56
(lp3630
g49
(g50
g51
NtRp3631
(dp3632
g54
(dp3633
g62
I3
ssg63
g3627
sg56
(lp3634
g92
asbasbasbag49
(g65
g51
NtRp3635
(dp3636
g54
(dp3637
sg63
g3605
sg56
(lp3638
g49
(g70
g51
NtRp3639
(dp3640
g54
(dp3641
sg63
g3635
sg56
(lp3642
g49
(g50
g51
NtRp3643
(dp3644
g54
(dp3645
g62
I3
ssg63
g3639
sg56
(lp3646
S'/Golf_2/default/index'
p3647
asbasbasbag49
(g65
g51
NtRp3648
(dp3649
g54
(dp3650
sg63
g3605
sg56
(lp3651
g49
(g70
g51
NtRp3652
(dp3653
g54
(dp3654
sg63
g3648
sg56
(lp3655
g49
(g50
g51
NtRp3656
(dp3657
g54
(dp3658
g62
I3
ssg63
g3652
sg56
(lp3659
g49
(g58
g51
NtRp3660
(dp3661
g54
(dp3662
g62
I2
ssg63
Nsg56
(lp3663
sbasbasbasbasbasbasbasbag49
(g65
g51
NtRp3664
(dp3665
g54
(dp3666
sg63
g3589
sg56
(lp3667
g49
(g70
g51
NtRp3668
(dp3669
g54
(dp3670
sg63
g3664
sg56
(lp3671
g49
(g50
g51
NtRp3672
(dp3673
g54
(dp3674
g62
I4
ssg63
g3668
sg56
(lp3675
g49
(g58
g51
NtRp3676
(dp3677
g54
(dp3678
g62
I3
ssg63
Nsg56
(lp3679
g49
(g65
g51
NtRp3680
(dp3681
g54
(dp3682
sg63
g3676
sg56
(lp3683
g49
(g70
g51
NtRp3684
(dp3685
g54
(dp3686
sg63
g3680
sg56
(lp3687
g49
(g50
g51
NtRp3688
(dp3689
g54
(dp3690
g62
I3
ssg63
g3684
sg56
(lp3691
g3621
(S's\x08\x00\x00\x00This App'
tRp3692
asbasbasbag49
(g65
g51
NtRp3693
(dp3694
g54
(dp3695
sg63
g3676
sg56
(lp3696
g49
(g70
g51
NtRp3697
(dp3698
g54
(dp3699
sg63
g3693
sg56
(lp3700
g49
(g50
g51
NtRp3701
(dp3702
g54
(dp3703
g62
I3
ssg63
g3697
sg56
(lp3704
g92
asbasbasbag49
(g65
g51
NtRp3705
(dp3706
g54
(dp3707
sg63
g3676
sg56
(lp3708
g49
(g70
g51
NtRp3709
(dp3710
g54
(dp3711
sg63
g3705
sg56
(lp3712
g49
(g50
g51
NtRp3713
(dp3714
g54
(dp3715
g62
I3
ssg63
g3709
sg56
(lp3716
S'/admin/default/design/Golf_2'
p3717
asbasbasbag49
(g65
g51
NtRp3718
(dp3719
g54
(dp3720
sg63
g3676
sg56
(lp3721
g49
(g70
g51
NtRp3722
(dp3723
g54
(dp3724
sg63
g3718
sg56
(lp3725
g49
(g50
g51
NtRp3726
(dp3727
g54
(dp3728
g62
I3
ssg63
g3722
sg56
(lp3729
g49
(g58
g51
NtRp3730
(dp3731
g54
(dp3732
g62
I2
ssg63
Nsg56
(lp3733
g49
(g65
g51
NtRp3734
(dp3735
g54
(dp3736
sg63
g3730
sg56
(lp3737
g49
(g70
g51
NtRp3738
(dp3739
g54
(dp3740
sg63
g3734
sg56
(lp3741
g49
(g50
g51
NtRp3742
(dp3743
g54
(dp3744
g62
I2
ssg63
g3738
sg56
(lp3745
g49
(g58
g51
NtRp3746
(dp3747
g54
(dp3748
g62
I1
ssg63
Nsg56
(lp3749
g49
(g65
g51
NtRp3750
(dp3751
g54
(dp3752
sg63
g3746
sg56
(lp3753
g49
(g70
g51
NtRp3754
(dp3755
g54
(dp3756
sg63
g3750
sg56
(lp3757
g49
(g50
g51
NtRp3758
(dp3759
g54
(dp3760
g62
I1
ssg63
g3754
sg56
(lp3761
g3621
(S's\n\x00\x00\x00Controller'
tRp3762
asbasbasbag49
(g65
g51
NtRp3763
(dp3764
g54
(dp3765
sg63
g3746
sg56
(lp3766
g49
(g70
g51
NtRp3767
(dp3768
g54
(dp3769
sg63
g3763
sg56
(lp3770
g49
(g50
g51
NtRp3771
(dp3772
g54
(dp3773
g62
I1
ssg63
g3767
sg56
(lp3774
I00
asbasbasbag49
(g65
g51
NtRp3775
(dp3776
g54
(dp3777
sg63
g3746
sg56
(lp3778
g49
(g70
g51
NtRp3779
(dp3780
g54
(dp3781
sg63
g3775
sg56
(lp3782
g49
(g50
g51
NtRp3783
(dp3784
g54
(dp3785
g62
I1
ssg63
g3779
sg56
(lp3786
S'/admin/default/edit/Golf_2/controllers/default.py'
p3787
asbasbasbasbasbasbasbag49
(g65
g51
NtRp3788
(dp3789
g54
(dp3790
sg63
g3730
sg56
(lp3791
g49
(g70
g51
NtRp3792
(dp3793
g54
(dp3794
sg63
g3788
sg56
(lp3795
g49
(g50
g51
NtRp3796
(dp3797
g54
(dp3798
g62
I2
ssg63
g3792
sg56
(lp3799
g49
(g58
g51
NtRp3800
(dp3801
g54
(dp3802
g62
I1
ssg63
Nsg56
(lp3803
g49
(g65
g51
NtRp3804
(dp3805
g54
(dp3806
sg63
g3800
sg56
(lp3807
g49
(g70
g51
NtRp3808
(dp3809
g54
(dp3810
sg63
g3804
sg56
(lp3811
g49
(g50
g51
NtRp3812
(dp3813
g54
(dp3814
g62
I1
ssg63
g3808
sg56
(lp3815
g3621
(S's\x04\x00\x00\x00View'
tRp3816
asbasbasbag49
(g65
g51
NtRp3817
(dp3818
g54
(dp3819
sg63
g3800
sg56
(lp3820
g49
(g70
g51
NtRp3821
(dp3822
g54
(dp3823
sg63
g3817
sg56
(lp3824
g49
(g50
g51
NtRp3825
(dp3826
g54
(dp3827
g62
I1
ssg63
g3821
sg56
(lp3828
I00
asbasbasbag49
(g65
g51
NtRp3829
(dp3830
g54
(dp3831
sg63
g3800
sg56
(lp3832
g49
(g70
g51
NtRp3833
(dp3834
g54
(dp3835
sg63
g3829
sg56
(lp3836
g49
(g50
g51
NtRp3837
(dp3838
g54
(dp3839
g62
I1
ssg63
g3833
sg56
(lp3840
S'/admin/default/edit/Golf_2/views/default/settings.html'
p3841
asbasbasbasbasbasbasbag49
(g65
g51
NtRp3842
(dp3843
g54
(dp3844
sg63
g3730
sg56
(lp3845
g49
(g70
g51
NtRp3846
(dp3847
g54
(dp3848
sg63
g3842
sg56
(lp3849
g49
(g50
g51
NtRp3850
(dp3851
g54
(dp3852
g62
I2
ssg63
g3846
sg56
(lp3853
g49
(g58
g51
NtRp3854
(dp3855
g54
(dp3856
g62
I1
ssg63
Nsg56
(lp3857
g49
(g65
g51
NtRp3858
(dp3859
g54
(dp3860
sg63
g3854
sg56
(lp3861
g49
(g70
g51
NtRp3862
(dp3863
g54
(dp3864
sg63
g3858
sg56
(lp3865
g49
(g50
g51
NtRp3866
(dp3867
g54
(dp3868
g62
I1
ssg63
g3862
sg56
(lp3869
g3621
(S's\x06\x00\x00\x00Layout'
tRp3870
asbasbasbag49
(g65
g51
NtRp3871
(dp3872
g54
(dp3873
sg63
g3854
sg56
(lp3874
g49
(g70
g51
NtRp3875
(dp3876
g54
(dp3877
sg63
g3871
sg56
(lp3878
g49
(g50
g51
NtRp3879
(dp3880
g54
(dp3881
g62
I1
ssg63
g3875
sg56
(lp3882
I00
asbasbasbag49
(g65
g51
NtRp3883
(dp3884
g54
(dp3885
sg63
g3854
sg56
(lp3886
g49
(g70
g51
NtRp3887
(dp3888
g54
(dp3889
sg63
g3883
sg56
(lp3890
g49
(g50
g51
NtRp3891
(dp3892
g54
(dp3893
g62
I1
ssg63
g3887
sg56
(lp3894
S'/admin/default/edit/Golf_2/views/layout.html'
p3895
asbasbasbasbasbasbasbag49
(g65
g51
NtRp3896
(dp3897
g54
(dp3898
sg63
g3730
sg56
(lp3899
g49
(g70
g51
NtRp3900
(dp3901
g54
(dp3902
sg63
g3896
sg56
(lp3903
g49
(g50
g51
NtRp3904
(dp3905
g54
(dp3906
g62
I2
ssg63
g3900
sg56
(lp3907
g49
(g58
g51
NtRp3908
(dp3909
g54
(dp3910
g62
I1
ssg63
Nsg56
(lp3911
g49
(g65
g51
NtRp3912
(dp3913
g54
(dp3914
sg63
g3908
sg56
(lp3915
g49
(g70
g51
NtRp3916
(dp3917
g54
(dp3918
sg63
g3912
sg56
(lp3919
g49
(g50
g51
NtRp3920
(dp3921
g54
(dp3922
g62
I1
ssg63
g3916
sg56
(lp3923
g3621
(S's\n\x00\x00\x00Stylesheet'
tRp3924
asbasbasbag49
(g65
g51
NtRp3925
(dp3926
g54
(dp3927
sg63
g3908
sg56
(lp3928
g49
(g70
g51
NtRp3929
(dp3930
g54
(dp3931
sg63
g3925
sg56
(lp3932
g49
(g50
g51
NtRp3933
(dp3934
g54
(dp3935
g62
I1
ssg63
g3929
sg56
(lp3936
I00
asbasbasbag49
(g65
g51
NtRp3937
(dp3938
g54
(dp3939
sg63
g3908
sg56
(lp3940
g49
(g70
g51
NtRp3941
(dp3942
g54
(dp3943
sg63
g3937
sg56
(lp3944
g49
(g50
g51
NtRp3945
(dp3946
g54
(dp3947
g62
I1
ssg63
g3941
sg56
(lp3948
S'/admin/default/edit/Golf_2/static/base.css'
p3949
asbasbasbasbasbasbasbag49
(g65
g51
NtRp3950
(dp3951
g54
(dp3952
sg63
g3730
sg56
(lp3953
g49
(g70
g51
NtRp3954
(dp3955
g54
(dp3956
sg63
g3950
sg56
(lp3957
g49
(g50
g51
NtRp3958
(dp3959
g54
(dp3960
g62
I2
ssg63
g3954
sg56
(lp3961
g49
(g58
g51
NtRp3962
(dp3963
g54
(dp3964
g62
I1
ssg63
Nsg56
(lp3965
g49
(g65
g51
NtRp3966
(dp3967
g54
(dp3968
sg63
g3962
sg56
(lp3969
g49
(g70
g51
NtRp3970
(dp3971
g54
(dp3972
sg63
g3966
sg56
(lp3973
g49
(g50
g51
NtRp3974
(dp3975
g54
(dp3976
g62
I1
ssg63
g3970
sg56
(lp3977
g3621
(S's\x08\x00\x00\x00DB Model'
tRp3978
asbasbasbag49
(g65
g51
NtRp3979
(dp3980
g54
(dp3981
sg63
g3962
sg56
(lp3982
g49
(g70
g51
NtRp3983
(dp3984
g54
(dp3985
sg63
g3979
sg56
(lp3986
g49
(g50
g51
NtRp3987
(dp3988
g54
(dp3989
g62
I1
ssg63
g3983
sg56
(lp3990
I00
asbasbasbag49
(g65
g51
NtRp3991
(dp3992
g54
(dp3993
sg63
g3962
sg56
(lp3994
g49
(g70
g51
NtRp3995
(dp3996
g54
(dp3997
sg63
g3991
sg56
(lp3998
g49
(g50
g51
NtRp3999
(dp4000
g54
(dp4001
g62
I1
ssg63
g3995
sg56
(lp4002
S'/admin/default/edit/Golf_2/models/db.py'
p4003
asbasbasbasbasbasbasbag49
(g65
g51
NtRp4004
(dp4005
g54
(dp4006
sg63
g3730
sg56
(lp4007
g49
(g70
g51
NtRp4008
(dp4009
g54
(dp4010
sg63
g4004
sg56
(lp4011
g49
(g50
g51
NtRp4012
(dp4013
g54
(dp4014
g62
I2
ssg63
g4008
sg56
(lp4015
g49
(g58
g51
NtRp4016
(dp4017
g54
(dp4018
g62
I1
ssg63
Nsg56
(lp4019
g49
(g65
g51
NtRp4020
(dp4021
g54
(dp4022
sg63
g4016
sg56
(lp4023
g49
(g70
g51
NtRp4024
(dp4025
g54
(dp4026
sg63
g4020
sg56
(lp4027
g49
(g50
g51
NtRp4028
(dp4029
g54
(dp4030
g62
I1
ssg63
g4024
sg56
(lp4031
g3621
(S's\n\x00\x00\x00Menu Model'
tRp4032
asbasbasbag49
(g65
g51
NtRp4033
(dp4034
g54
(dp4035
sg63
g4016
sg56
(lp4036
g49
(g70
g51
NtRp4037
(dp4038
g54
(dp4039
sg63
g4033
sg56
(lp4040
g49
(g50
g51
NtRp4041
(dp4042
g54
(dp4043
g62
I1
ssg63
g4037
sg56
(lp4044
I00
asbasbasbag49
(g65
g51
NtRp4045
(dp4046
g54
(dp4047
sg63
g4016
sg56
(lp4048
g49
(g70
g51
NtRp4049
(dp4050
g54
(dp4051
sg63
g4045
sg56
(lp4052
g49
(g50
g51
NtRp4053
(dp4054
g54
(dp4055
g62
I1
ssg63
g4049
sg56
(lp4056
S'/admin/default/edit/Golf_2/models/menu.py'
p4057
asbasbasbasbasbasbasbag49
(g65
g51
NtRp4058
(dp4059
g54
(dp4060
sg63
g3730
sg56
(lp4061
g49
(g70
g51
NtRp4062
(dp4063
g54
(dp4064
sg63
g4058
sg56
(lp4065
g49
(g50
g51
NtRp4066
(dp4067
g54
(dp4068
g62
I2
ssg63
g4062
sg56
(lp4069
g49
(g58
g51
NtRp4070
(dp4071
g54
(dp4072
g62
I1
ssg63
Nsg56
(lp4073
g49
(g65
g51
NtRp4074
(dp4075
g54
(dp4076
sg63
g4070
sg56
(lp4077
g49
(g70
g51
NtRp4078
(dp4079
g54
(dp4080
sg63
g4074
sg56
(lp4081
g49
(g50
g51
NtRp4082
(dp4083
g54
(dp4084
g62
I1
ssg63
g4078
sg56
(lp4085
g3621
(S's\x08\x00\x00\x00Database'
tRp4086
asbasbasbag49
(g65
g51
NtRp4087
(dp4088
g54
(dp4089
sg63
g4070
sg56
(lp4090
g49
(g70
g51
NtRp4091
(dp4092
g54
(dp4093
sg63
g4087
sg56
(lp4094
g49
(g50
g51
NtRp4095
(dp4096
g54
(dp4097
g62
I1
ssg63
g4091
sg56
(lp4098
I00
asbasbasbag49
(g65
g51
NtRp4099
(dp4100
g54
(dp4101
sg63
g4070
sg56
(lp4102
g49
(g70
g51
NtRp4103
(dp4104
g54
(dp4105
sg63
g4099
sg56
(lp4106
g49
(g50
g51
NtRp4107
(dp4108
g54
(dp4109
g62
I1
ssg63
g4103
sg56
(lp4110
S'/Golf_2/appadmin/index'
p4111
asbasbasbasbasbasbasbag49
(g65
g51
NtRp4112
(dp4113
g54
(dp4114
sg63
g3730
sg56
(lp4115
g49
(g70
g51
NtRp4116
(dp4117
g54
(dp4118
sg63
g4112
sg56
(lp4119
g49
(g50
g51
NtRp4120
(dp4121
g54
(dp4122
g62
I2
ssg63
g4116
sg56
(lp4123
g49
(g58
g51
NtRp4124
(dp4125
g54
(dp4126
g62
I1
ssg63
Nsg56
(lp4127
g49
(g65
g51
NtRp4128
(dp4129
g54
(dp4130
sg63
g4124
sg56
(lp4131
g49
(g70
g51
NtRp4132
(dp4133
g54
(dp4134
sg63
g4128
sg56
(lp4135
g49
(g50
g51
NtRp4136
(dp4137
g54
(dp4138
g62
I1
ssg63
g4132
sg56
(lp4139
g3621
(S's\x06\x00\x00\x00Errors'
tRp4140
asbasbasbag49
(g65
g51
NtRp4141
(dp4142
g54
(dp4143
sg63
g4124
sg56
(lp4144
g49
(g70
g51
NtRp4145
(dp4146
g54
(dp4147
sg63
g4141
sg56
(lp4148
g49
(g50
g51
NtRp4149
(dp4150
g54
(dp4151
g62
I1
ssg63
g4145
sg56
(lp4152
I00
asbasbasbag49
(g65
g51
NtRp4153
(dp4154
g54
(dp4155
sg63
g4124
sg56
(lp4156
g49
(g70
g51
NtRp4157
(dp4158
g54
(dp4159
sg63
g4153
sg56
(lp4160
g49
(g50
g51
NtRp4161
(dp4162
g54
(dp4163
g62
I1
ssg63
g4157
sg56
(lp4164
S'/admin/default/errors/Golf_2'
p4165
asbasbasbasbasbasbasbag49
(g65
g51
NtRp4166
(dp4167
g54
(dp4168
sg63
g3730
sg56
(lp4169
g49
(g70
g51
NtRp4170
(dp4171
g54
(dp4172
sg63
g4166
sg56
(lp4173
g49
(g50
g51
NtRp4174
(dp4175
g54
(dp4176
g62
I2
ssg63
g4170
sg56
(lp4177
g49
(g58
g51
NtRp4178
(dp4179
g54
(dp4180
g62
I1
ssg63
Nsg56
(lp4181
g49
(g65
g51
NtRp4182
(dp4183
g54
(dp4184
sg63
g4178
sg56
(lp4185
g49
(g70
g51
NtRp4186
(dp4187
g54
(dp4188
sg63
g4182
sg56
(lp4189
g49
(g50
g51
NtRp4190
(dp4191
g54
(dp4192
g62
I1
ssg63
g4186
sg56
(lp4193
g3621
(S's\x05\x00\x00\x00About'
tRp4194
asbasbasbag49
(g65
g51
NtRp4195
(dp4196
g54
(dp4197
sg63
g4178
sg56
(lp4198
g49
(g70
g51
NtRp4199
(dp4200
g54
(dp4201
sg63
g4195
sg56
(lp4202
g49
(g50
g51
NtRp4203
(dp4204
g54
(dp4205
g62
I1
ssg63
g4199
sg56
(lp4206
I00
asbasbasbag49
(g65
g51
NtRp4207
(dp4208
g54
(dp4209
sg63
g4178
sg56
(lp4210
g49
(g70
g51
NtRp4211
(dp4212
g54
(dp4213
sg63
g4207
sg56
(lp4214
g49
(g50
g51
NtRp4215
(dp4216
g54
(dp4217
g62
I1
ssg63
g4211
sg56
(lp4218
S'/admin/default/about/Golf_2'
p4219
asbasbasbasbasbasbasbasbasbasbasbasbasbasbasbag49
(g65
g51
NtRp4220
(dp4221
g54
(dp4222
sg63
g3589
sg56
(lp4223
g49
(g70
g51
NtRp4224
(dp4225
g54
(dp4226
sg63
g4220
sg56
(lp4227
g49
(g50
g51
NtRp4228
(dp4229
g54
(dp4230
g62
I4
ssg63
g4224
sg56
(lp4231
g49
(g58
g51
NtRp4232
(dp4233
g54
(dp4234
g62
I3
ssg63
Nsg56
(lp4235
g49
(g65
g51
NtRp4236
(dp4237
g54
(dp4238
sg63
g4232
sg56
(lp4239
g49
(g70
g51
NtRp4240
(dp4241
g54
(dp4242
sg63
g4236
sg56
(lp4243
g49
(g50
g51
NtRp4244
(dp4245
g54
(dp4246
g62
I3
ssg63
g4240
sg56
(lp4247
g3621
(S's\t\x00\x00\x00Resources'
tRp4248
asbasbasbag49
(g65
g51
NtRp4249
(dp4250
g54
(dp4251
sg63
g4232
sg56
(lp4252
g49
(g70
g51
NtRp4253
(dp4254
g54
(dp4255
sg63
g4249
sg56
(lp4256
g49
(g50
g51
NtRp4257
(dp4258
g54
(dp4259
g62
I3
ssg63
g4253
sg56
(lp4260
g92
asbasbasbag49
(g65
g51
NtRp4261
(dp4262
g54
(dp4263
sg63
g4232
sg56
(lp4264
g49
(g70
g51
NtRp4265
(dp4266
g54
(dp4267
sg63
g4261
sg56
(lp4268
g49
(g50
g51
NtRp4269
(dp4270
g54
(dp4271
g62
I3
ssg63
g4265
sg56
(lp4272
S'None'
p4273
asbasbasbag49
(g65
g51
NtRp4274
(dp4275
g54
(dp4276
sg63
g4232
sg56
(lp4277
g49
(g70
g51
NtRp4278
(dp4279
g54
(dp4280
sg63
g4274
sg56
(lp4281
g49
(g50
g51
NtRp4282
(dp4283
g54
(dp4284
g62
I3
ssg63
g4278
sg56
(lp4285
g49
(g58
g51
NtRp4286
(dp4287
g54
(dp4288
g62
I2
ssg63
Nsg56
(lp4289
g49
(g65
g51
NtRp4290
(dp4291
g54
(dp4292
sg63
g4286
sg56
(lp4293
g49
(g70
g51
NtRp4294
(dp4295
g54
(dp4296
sg63
g4290
sg56
(lp4297
g49
(g50
g51
NtRp4298
(dp4299
g54
(dp4300
g62
I2
ssg63
g4294
sg56
(lp4301
g49
(g58
g51
NtRp4302
(dp4303
g54
(dp4304
g62
I1
ssg63
Nsg56
(lp4305
g49
(g65
g51
NtRp4306
(dp4307
g54
(dp4308
sg63
g4302
sg56
(lp4309
g49
(g70
g51
NtRp4310
(dp4311
g54
(dp4312
sg63
g4306
sg56
(lp4313
g49
(g50
g51
NtRp4314
(dp4315
g54
(dp4316
g62
I1
ssg63
g4310
sg56
(lp4317
g3621
(S's\r\x00\x00\x00Documentation'
tRp4318
asbasbasbag49
(g65
g51
NtRp4319
(dp4320
g54
(dp4321
sg63
g4302
sg56
(lp4322
g49
(g70
g51
NtRp4323
(dp4324
g54
(dp4325
sg63
g4319
sg56
(lp4326
g49
(g50
g51
NtRp4327
(dp4328
g54
(dp4329
g62
I1
ssg63
g4323
sg56
(lp4330
I00
asbasbasbag49
(g65
g51
NtRp4331
(dp4332
g54
(dp4333
sg63
g4302
sg56
(lp4334
g49
(g70
g51
NtRp4335
(dp4336
g54
(dp4337
sg63
g4331
sg56
(lp4338
g49
(g50
g51
NtRp4339
(dp4340
g54
(dp4341
g62
I1
ssg63
g4335
sg56
(lp4342
S'http://www.web2py.com/book'
p4343
asbasbasbag49
(g65
g51
NtRp4344
(dp4345
g54
(dp4346
sg63
g4302
sg56
(lp4347
g49
(g70
g51
NtRp4348
(dp4349
g54
(dp4350
sg63
g4344
sg56
(lp4351
g49
(g50
g51
NtRp4352
(dp4353
g54
(dp4354
g62
I1
ssg63
g4348
sg56
(lp4355
(lp4356
(g3621
(S's\x07\x00\x00\x00Preface'
tRp4357
I00
S'http://www.web2py.com/book/default/chapter/00'
tp4358
a(g3621
(S's\x0c\x00\x00\x00Introduction'
tRp4359
I00
S'http://www.web2py.com/book/default/chapter/01'
tp4360
a(g3621
(S's\x06\x00\x00\x00Python'
tRp4361
I00
S'http://www.web2py.com/book/default/chapter/02'
tp4362
a(g3621
(S's\x08\x00\x00\x00Overview'
tRp4363
I00
S'http://www.web2py.com/book/default/chapter/03'
tp4364
a(g3621
(S's\x08\x00\x00\x00The Core'
tRp4365
I00
S'http://www.web2py.com/book/default/chapter/04'
tp4366
a(g3621
(S's\t\x00\x00\x00The Views'
tRp4367
I00
S'http://www.web2py.com/book/default/chapter/05'
tp4368
a(g3621
(S's\x08\x00\x00\x00Database'
tRp4369
I00
S'http://www.web2py.com/book/default/chapter/06'
tp4370
a(g3621
(S's\x14\x00\x00\x00Forms and Validators'
tRp4371
I00
S'http://www.web2py.com/book/default/chapter/07'
tp4372
a(g3621
(S's\x0e\x00\x00\x00Access Control'
tRp4373
I00
S'http://www.web2py.com/book/default/chapter/08'
tp4374
a(g3621
(S's\x08\x00\x00\x00Services'
tRp4375
I00
S'http://www.web2py.com/book/default/chapter/09'
tp4376
a(g3621
(S's\x0c\x00\x00\x00Ajax Recipes'
tRp4377
I00
S'http://www.web2py.com/book/default/chapter/10'
tp4378
a(g3621
(S's\x12\x00\x00\x00Deployment Recipes'
tRp4379
I00
S'http://www.web2py.com/book/default/chapter/11'
tp4380
a(g3621
(S's\r\x00\x00\x00Other Recipes'
tRp4381
I00
S'http://www.web2py.com/book/default/chapter/12'
tp4382
a(g3621
(S's\r\x00\x00\x00Buy this book'
tRp4383
I00
S'http://stores.lulu.com/web2py'
tp4384
aasbasbasbasbasbasbasbag49
(g65
g51
NtRp4385
(dp4386
g54
(dp4387
sg63
g4286
sg56
(lp4388
g49
(g70
g51
NtRp4389
(dp4390
g54
(dp4391
sg63
g4385
sg56
(lp4392
g49
(g50
g51
NtRp4393
(dp4394
g54
(dp4395
g62
I2
ssg63
g4389
sg56
(lp4396
g49
(g58
g51
NtRp4397
(dp4398
g54
(dp4399
g62
I1
ssg63
Nsg56
(lp4400
g49
(g65
g51
NtRp4401
(dp4402
g54
(dp4403
sg63
g4397
sg56
(lp4404
g49
(g70
g51
NtRp4405
(dp4406
g54
(dp4407
sg63
g4401
sg56
(lp4408
g49
(g50
g51
NtRp4409
(dp4410
g54
(dp4411
g62
I1
ssg63
g4405
sg56
(lp4412
g3621
(S's\t\x00\x00\x00Community'
tRp4413
asbasbasbag49
(g65
g51
NtRp4414
(dp4415
g54
(dp4416
sg63
g4397
sg56
(lp4417
g49
(g70
g51
NtRp4418
(dp4419
g54
(dp4420
sg63
g4414
sg56
(lp4421
g49
(g50
g51
NtRp4422
(dp4423
g54
(dp4424
g62
I1
ssg63
g4418
sg56
(lp4425
I00
asbasbasbag49
(g65
g51
NtRp4426
(dp4427
g54
(dp4428
sg63
g4397
sg56
(lp4429
g49
(g70
g51
NtRp4430
(dp4431
g54
(dp4432
sg63
g4426
sg56
(lp4433
g49
(g50
g51
NtRp4434
(dp4435
g54
(dp4436
g62
I1
ssg63
g4430
sg56
(lp4437
Nasbasbasbag49
(g65
g51
NtRp4438
(dp4439
g54
(dp4440
sg63
g4397
sg56
(lp4441
g49
(g70
g51
NtRp4442
(dp4443
g54
(dp4444
sg63
g4438
sg56
(lp4445
g49
(g50
g51
NtRp4446
(dp4447
g54
(dp4448
g62
I1
ssg63
g4442
sg56
(lp4449
(lp4450
(g3621
(S's\x06\x00\x00\x00Groups'
tRp4451
I00
S'http://www.web2py.com/examples/default/usergroups'
tp4452
a(g3621
(S's\x07\x00\x00\x00Twitter'
tRp4453
I00
S'http://twitter.com/web2py'
tp4454
a(g3621
(S's\t\x00\x00\x00Live chat'
tRp4455
I00
S'http://mibbit.com/?channel=%23web2py&server=irc.mibbit.net'
tp4456
a(g3621
(S's\n\x00\x00\x00User Voice'
tRp4457
I00
S'http://web2py.uservoice.com/'
tp4458
aasbasbasbasbasbasbasbag49
(g65
g51
NtRp4459
(dp4460
g54
(dp4461
sg63
g4286
sg56
(lp4462
g49
(g70
g51
NtRp4463
(dp4464
g54
(dp4465
sg63
g4459
sg56
(lp4466
g49
(g50
g51
NtRp4467
(dp4468
g54
(dp4469
g62
I2
ssg63
g4463
sg56
(lp4470
g49
(g58
g51
NtRp4471
(dp4472
g54
(dp4473
g62
I1
ssg63
Nsg56
(lp4474
g49
(g65
g51
NtRp4475
(dp4476
g54
(dp4477
sg63
g4471
sg56
(lp4478
g49
(g70
g51
NtRp4479
(dp4480
g54
(dp4481
sg63
g4475
sg56
(lp4482
g49
(g50
g51
NtRp4483
(dp4484
g54
(dp4485
g62
I1
ssg63
g4479
sg56
(lp4486
g3621
(S's\x06\x00\x00\x00Web2py'
tRp4487
asbasbasbag49
(g65
g51
NtRp4488
(dp4489
g54
(dp4490
sg63
g4471
sg56
(lp4491
g49
(g70
g51
NtRp4492
(dp4493
g54
(dp4494
sg63
g4488
sg56
(lp4495
g49
(g50
g51
NtRp4496
(dp4497
g54
(dp4498
g62
I1
ssg63
g4492
sg56
(lp4499
I00
asbasbasbag49
(g65
g51
NtRp4500
(dp4501
g54
(dp4502
sg63
g4471
sg56
(lp4503
g49
(g70
g51
NtRp4504
(dp4505
g54
(dp4506
sg63
g4500
sg56
(lp4507
g49
(g50
g51
NtRp4508
(dp4509
g54
(dp4510
g62
I1
ssg63
g4504
sg56
(lp4511
S'http://www.web2py.com'
p4512
asbasbasbag49
(g65
g51
NtRp4513
(dp4514
g54
(dp4515
sg63
g4471
sg56
(lp4516
g49
(g70
g51
NtRp4517
(dp4518
g54
(dp4519
sg63
g4513
sg56
(lp4520
g49
(g50
g51
NtRp4521
(dp4522
g54
(dp4523
g62
I1
ssg63
g4517
sg56
(lp4524
(lp4525
(g3621
(S's\x08\x00\x00\x00Download'
tRp4526
I00
S'http://www.web2py.com/examples/default/download'
tp4527
a(g3621
(S's\x07\x00\x00\x00Support'
tRp4528
I00
S'http://www.web2py.com/examples/default/support'
tp4529
a(g3621
(S's\x0e\x00\x00\x00Quick Examples'
tRp4530
I00
S'http://web2py.com/examples/default/examples'
tp4531
a(g3621
(S's\x03\x00\x00\x00FAQ'
tRp4532
I00
S'http://web2py.com/AlterEgo'
tp4533
a(g3621
(S's\x11\x00\x00\x00Free Applications'
tRp4534
I00
S'http://web2py.com/appliances'
tp4535
a(g3621
(S's\x07\x00\x00\x00Plugins'
tRp4536
I00
S'http://web2py.com/plugins'
tp4537
a(g3621
(S's\x07\x00\x00\x00Recipes'
tRp4538
I00
S'http://web2pyslices.com/'
tp4539
a(g3621
(S's\x04\x00\x00\x00Demo'
tRp4540
I00
S'http://web2py.com/demo_admin'
tp4541
a(g3621
(S's\x08\x00\x00\x00Semantic'
tRp4542
I00
S'http://web2py.com/semantic'
tp4543
a(g3621
(S's\x07\x00\x00\x00Layouts'
tRp4544
I00
S'http://web2py.com/layouts'
tp4545
a(g3621
(S's\x06\x00\x00\x00Videos'
tRp4546
I00
S'http://www.web2py.com/examples/default/videos/'
tp4547
aasbasbasbasbasbasbasbasbasbasbasbasbasbasbasbasbasbasbasbag49
(g65
g51
NtRp4548
(dp4549
g54
(dp4550
sg63
g3097
sg56
(lp4551
g49
(g70
g51
NtRp4552
(dp4553
g54
(dp4554
g74
g75
ssg63
g4548
sg56
(lp4555
S'meta'
p4556
asbag49
(g70
g51
NtRp4557
(dp4558
g54
(dp4559
g81
g82
ssg63
g4548
sg56
(lp4560
S':'
asbag49
(g70
g51
NtRp4561
(dp4562
g54
(dp4563
sg63
g4548
sg56
(lp4564
g49
(g50
g51
NtRp4565
(dp4566
g54
(dp4567
g62
I5
ssg63
g4561
sg56
(lp4568
g49
(g58
g51
NtRp4569
(dp4570
g54
(dp4571
g62
I4
ssg63
Nsg56
(lp4572
g49
(g65
g51
NtRp4573
(dp4574
g54
(dp4575
sg63
g4569
sg56
(lp4576
g49
(g70
g51
NtRp4577
(dp4578
g54
(dp4579
g74
g75
ssg63
g4573
sg56
(lp4580
S'author'
p4581
asbag49
(g70
g51
NtRp4582
(dp4583
g54
(dp4584
g81
g82
ssg63
g4573
sg56
(lp4585
S':'
asbag49
(g70
g51
NtRp4586
(dp4587
g54
(dp4588
sg63
g4573
sg56
(lp4589
g49
(g50
g51
NtRp4590
(dp4591
g54
(dp4592
g62
I4
ssg63
g4586
sg56
(lp4593
S'you'
p4594
asbasbasbag49
(g65
g51
NtRp4595
(dp4596
g54
(dp4597
sg63
g4569
sg56
(lp4598
g49
(g70
g51
NtRp4599
(dp4600
g54
(dp4601
g74
g75
ssg63
g4595
sg56
(lp4602
S'copyright'
p4603
asbag49
(g70
g51
NtRp4604
(dp4605
g54
(dp4606
g81
g82
ssg63
g4595
sg56
(lp4607
S':'
asbag49
(g70
g51
NtRp4608
(dp4609
g54
(dp4610
sg63
g4595
sg56
(lp4611
g49
(g50
g51
NtRp4612
(dp4613
g54
(dp4614
g62
I4
ssg63
g4608
sg56
(lp4615
S'Copyright 2007-2010'
p4616
asbasbasbag49
(g65
g51
NtRp4617
(dp4618
g54
(dp4619
sg63
g4569
sg56
(lp4620
g49
(g70
g51
NtRp4621
(dp4622
g54
(dp4623
g74
g75
ssg63
g4617
sg56
(lp4624
S'description'
p4625
asbag49
(g70
g51
NtRp4626
(dp4627
g54
(dp4628
g81
g82
ssg63
g4617
sg56
(lp4629
S':'
asbag49
(g70
g51
NtRp4630
(dp4631
g54
(dp4632
sg63
g4617
sg56
(lp4633
g49
(g50
g51
NtRp4634
(dp4635
g54
(dp4636
g62
I4
ssg63
g4630
sg56
(lp4637
S'Free and open source full-stack enterprise framework for agile development of fast, scalable, secure and portable database-driven web-based applications. Written and programmable in Python'
p4638
asbasbasbag49
(g65
g51
NtRp4639
(dp4640
g54
(dp4641
sg63
g4569
sg56
(lp4642
g49
(g70
g51
NtRp4643
(dp4644
g54
(dp4645
g74
g75
ssg63
g4639
sg56
(lp4646
S'generator'
p4647
asbag49
(g70
g51
NtRp4648
(dp4649
g54
(dp4650
g81
g82
ssg63
g4639
sg56
(lp4651
S':'
asbag49
(g70
g51
NtRp4652
(dp4653
g54
(dp4654
sg63
g4639
sg56
(lp4655
g49
(g50
g51
NtRp4656
(dp4657
g54
(dp4658
g62
I4
ssg63
g4652
sg56
(lp4659
S'Web2py Enterprise Framework'
p4660
asbasbasbag49
(g65
g51
NtRp4661
(dp4662
g54
(dp4663
sg63
g4569
sg56
(lp4664
g49
(g70
g51
NtRp4665
(dp4666
g54
(dp4667
g74
g75
ssg63
g4661
sg56
(lp4668
S'keywords'
p4669
asbag49
(g70
g51
NtRp4670
(dp4671
g54
(dp4672
g81
g82
ssg63
g4661
sg56
(lp4673
S':'
asbag49
(g70
g51
NtRp4674
(dp4675
g54
(dp4676
sg63
g4661
sg56
(lp4677
g49
(g50
g51
NtRp4678
(dp4679
g54
(dp4680
g62
I4
ssg63
g4674
sg56
(lp4681
S'web2py, python, framework'
p4682
asbasbasbasbasbasbasbag49
(g65
g51
NtRp4683
(dp4684
g54
(dp4685
sg63
g3097
sg56
(lp4686
g49
(g70
g51
NtRp4687
(dp4688
g54
(dp4689
g74
g75
ssg63
g4683
sg56
(lp4690
S'postprocessing'
p4691
asbag49
(g70
g51
NtRp4692
(dp4693
g54
(dp4694
g81
g82
ssg63
g4683
sg56
(lp4695
S':'
asbag49
(g70
g51
NtRp4696
(dp4697
g54
(dp4698
sg63
g4683
sg56
(lp4699
g49
(g50
g51
NtRp4700
(dp4701
g54
(dp4702
g62
I5
ssg63
g4696
sg56
(lp4703
g49
(g58
g51
NtRp4704
(dp4705
g54
(dp4706
g62
I4
ssg63
Nsg56
(lp4707
sbasbasbasbag49
(g65
g51
NtRp4708
(dp4709
g54
(dp4710
sg63
g3097
sg56
(lp4711
g49
(g70
g51
NtRp4712
(dp4713
g54
(dp4714
g74
g75
ssg63
g4708
sg56
(lp4715
S'session_file'
p4716
asbag49
(g70
g51
NtRp4717
(dp4718
g54
(dp4719
g81
g82
ssg63
g4708
sg56
(lp4720
S':'
asbag49
(g70
g51
NtRp4721
(dp4722
g54
(dp4723
sg63
g4708
sg56
(lp4724
g49
(g50
g51
NtRp4725
(dp4726
g54
(dp4727
g62
I5
ssg63
g4721
sg56
(lp4728
S"<open file 'C:\\Users\\avjain\\Downloads\\web2py\\applications\\Golf_2\\sessions\\127.0.0.1-b2abb96c-79bd-455e-bf11-447a7eebe1ee', mode 'rb+' at 0x05FC6338>"
p4729
asbasbasbag49
(g65
g51
NtRp4730
(dp4731
g54
(dp4732
sg63
g3097
sg56
(lp4733
g49
(g70
g51
NtRp4734
(dp4735
g54
(dp4736
g74
g75
ssg63
g4730
sg56
(lp4737
S'session_filename'
p4738
asbag49
(g70
g51
NtRp4739
(dp4740
g54
(dp4741
g81
g82
ssg63
g4730
sg56
(lp4742
S':'
asbag49
(g70
g51
NtRp4743
(dp4744
g54
(dp4745
sg63
g4730
sg56
(lp4746
g49
(g50
g51
NtRp4747
(dp4748
g54
(dp4749
g62
I5
ssg63
g4743
sg56
(lp4750
S'C:\\Users\\avjain\\Downloads\\web2py\\applications\\Golf_2\\sessions\\127.0.0.1-b2abb96c-79bd-455e-bf11-447a7eebe1ee'
p4751
asbasbasbag49
(g65
g51
NtRp4752
(dp4753
g54
(dp4754
sg63
g3097
sg56
(lp4755
g49
(g70
g51
NtRp4756
(dp4757
g54
(dp4758
g74
g75
ssg63
g4752
sg56
(lp4759
S'session_id'
p4760
asbag49
(g70
g51
NtRp4761
(dp4762
g54
(dp4763
g81
g82
ssg63
g4752
sg56
(lp4764
S':'
asbag49
(g70
g51
NtRp4765
(dp4766
g54
(dp4767
sg63
g4752
sg56
(lp4768
g49
(g50
g51
NtRp4769
(dp4770
g54
(dp4771
g62
I5
ssg63
g4765
sg56
(lp4772
S'127.0.0.1-b2abb96c-79bd-455e-bf11-447a7eebe1ee'
p4773
asbasbasbag49
(g65
g51
NtRp4774
(dp4775
g54
(dp4776
sg63
g3097
sg56
(lp4777
g49
(g70
g51
NtRp4778
(dp4779
g54
(dp4780
g74
g75
ssg63
g4774
sg56
(lp4781
S'session_id_name'
p4782
asbag49
(g70
g51
NtRp4783
(dp4784
g54
(dp4785
g81
g82
ssg63
g4774
sg56
(lp4786
S':'
asbag49
(g70
g51
NtRp4787
(dp4788
g54
(dp4789
sg63
g4774
sg56
(lp4790
g49
(g50
g51
NtRp4791
(dp4792
g54
(dp4793
g62
I5
ssg63
g4787
sg56
(lp4794
g3154
asbasbasbag49
(g65
g51
NtRp4795
(dp4796
g54
(dp4797
sg63
g3097
sg56
(lp4798
g49
(g70
g51
NtRp4799
(dp4800
g54
(dp4801
g74
g75
ssg63
g4795
sg56
(lp4802
S'session_locked'
p4803
asbag49
(g70
g51
NtRp4804
(dp4805
g54
(dp4806
g81
g82
ssg63
g4795
sg56
(lp4807
S':'
asbag49
(g70
g51
NtRp4808
(dp4809
g54
(dp4810
sg63
g4795
sg56
(lp4811
g49
(g50
g51
NtRp4812
(dp4813
g54
(dp4814
g62
I5
ssg63
g4808
sg56
(lp4815
g1631
asbasbasbag49
(g65
g51
NtRp4816
(dp4817
g54
(dp4818
sg63
g3097
sg56
(lp4819
g49
(g70
g51
NtRp4820
(dp4821
g54
(dp4822
g74
g75
ssg63
g4816
sg56
(lp4823
S'session_new'
p4824
asbag49
(g70
g51
NtRp4825
(dp4826
g54
(dp4827
g81
g82
ssg63
g4816
sg56
(lp4828
S':'
asbag49
(g70
g51
NtRp4829
(dp4830
g54
(dp4831
sg63
g4816
sg56
(lp4832
g49
(g50
g51
NtRp4833
(dp4834
g54
(dp4835
g62
I5
ssg63
g4829
sg56
(lp4836
g92
asbasbasbag49
(g65
g51
NtRp4837
(dp4838
g54
(dp4839
sg63
g3097
sg56
(lp4840
g49
(g70
g51
NtRp4841
(dp4842
g54
(dp4843
g74
g75
ssg63
g4837
sg56
(lp4844
S'status'
p4845
asbag49
(g70
g51
NtRp4846
(dp4847
g54
(dp4848
g81
g82
ssg63
g4837
sg56
(lp4849
S':'
asbag49
(g70
g51
NtRp4850
(dp4851
g54
(dp4852
sg63
g4837
sg56
(lp4853
g49
(g50
g51
NtRp4854
(dp4855
g54
(dp4856
g62
I5
ssg63
g4850
sg56
(lp4857
S'200'
p4858
asbasbasbag49
(g65
g51
NtRp4859
(dp4860
g54
(dp4861
sg63
g3097
sg56
(lp4862
g49
(g70
g51
NtRp4863
(dp4864
g54
(dp4865
g74
g75
ssg63
g4859
sg56
(lp4866
S'subtitle'
p4867
asbag49
(g70
g51
NtRp4868
(dp4869
g54
(dp4870
g81
g82
ssg63
g4859
sg56
(lp4871
S':'
asbag49
(g70
g51
NtRp4872
(dp4873
g54
(dp4874
sg63
g4859
sg56
(lp4875
g49
(g50
g51
NtRp4876
(dp4877
g54
(dp4878
g62
I5
ssg63
g4872
sg56
(lp4879
g3621
(S's\r\x00\x00\x00customize me!'
tRp4880
asbasbasbag49
(g65
g51
NtRp4881
(dp4882
g54
(dp4883
sg63
g3097
sg56
(lp4884
g49
(g70
g51
NtRp4885
(dp4886
g54
(dp4887
g74
g75
ssg63
g4881
sg56
(lp4888
S'title'
p4889
asbag49
(g70
g51
NtRp4890
(dp4891
g54
(dp4892
g81
g82
ssg63
g4881
sg56
(lp4893
S':'
asbag49
(g70
g51
NtRp4894
(dp4895
g54
(dp4896
sg63
g4881
sg56
(lp4897
g49
(g50
g51
NtRp4898
(dp4899
g54
(dp4900
g62
I5
ssg63
g4894
sg56
(lp4901
g114
asbasbasbag49
(g65
g51
NtRp4902
(dp4903
g54
(dp4904
sg63
g3097
sg56
(lp4905
g49
(g70
g51
NtRp4906
(dp4907
g54
(dp4908
g74
g75
ssg63
g4902
sg56
(lp4909
g2316
asbag49
(g70
g51
NtRp4910
(dp4911
g54
(dp4912
g81
g82
ssg63
g4902
sg56
(lp4913
S':'
asbag49
(g70
g51
NtRp4914
(dp4915
g54
(dp4916
sg63
g4902
sg56
(lp4917
g49
(g50
g51
NtRp4918
(dp4919
g54
(dp4920
g62
I5
ssg63
g4914
sg56
(lp4921
g2329
asbasbasbag49
(g65
g51
NtRp4922
(dp4923
g54
(dp4924
sg63
g3097
sg56
(lp4925
g49
(g70
g51
NtRp4926
(dp4927
g54
(dp4928
g74
g75
ssg63
g4922
sg56
(lp4929
S'view'
p4930
asbag49
(g70
g51
NtRp4931
(dp4932
g54
(dp4933
g81
g82
ssg63
g4922
sg56
(lp4934
S':'
asbag49
(g70
g51
NtRp4935
(dp4936
g54
(dp4937
sg63
g4922
sg56
(lp4938
g49
(g50
g51
NtRp4939
(dp4940
g54
(dp4941
g62
I5
ssg63
g4935
sg56
(lp4942
S'default/settings.html'
p4943
asbasbasbasbasbsS'locals'
p4944
(dp4945
S'i'
S'0'
sS'self'
p4946
S'<gluon.dal.Rows object at 0x060144D0>'
p4947
sssS'traceback'
p4948
S'Traceback (most recent call last):\n  File "gluon/restricted.py", line 205, in restricted\n  File "C:\\Users\\avjain\\Downloads\\web2py\\applications\\Golf_2\\views\\default/settings.html", line 26, in <module>\n  File "gluon/dal.py", line 7755, in __getitem__\nIndexError: list index out of range\n'
p4949
s.