(dp1
S'output'
p2
S"<type 'exceptions.IndexError'> list index out of range"
p3
sS'layer'
p4
S'C:\\Users\\avjain\\Downloads\\web2py\\applications\\Golf_2\\controllers/default.py'
p5
sS'code'
p6
S'# -*- coding: utf-8 -*- \n# this file is released under public domain and you can use without limitations\n\n#########################################################################\n## This is a samples controller\n## - index is the default action of any application\n## - user is required for authentication and authorization\n## - download is for downloading files uploaded in the db (does streaming)\n## - call exposes all registered services (none by default)\n#########################################################################\n\ndef index():\n    """\n    example action using the internationalization operator T and flash\n    rendered by views/default/index.html or views/generic.html\n    """\n    response.flash = T(\'You are successfully running web2py.\')\n    return dict(message=T(\'Hello World\'))\n     \ndef settings():\n    if not session.login:\n        redirect(URL(\'login\'))\n    setting = db(db.user_settings.user_id==session.userid).select(db.user_settings.ALL)[0]\n    return dict(setting=setting)    \n    \ndef register():\n     # create an insert form from the table\n    form = SQLFORM(db.users)\n\n    # if form correct perform the insert\n    if form.process().accepted:\n        username = db().select(db.users.ALL, orderby=~db.users.id)[0]\n        db.user_settings.insert(user_id=username[\'Username\']) \n        session.login = True\n        session.userid = username[\'Username\']\n        session.username = username[\'Name\']\n        redirect(URL(\'index\'))\n    else:\n        response.flash = "Error !"        \n        \n    return dict(form=form)    \n\ndef login():    \n    #TODO check whether the credentials given exist in database\n    users = db((db.users.Username==request.vars.username)&(db.users.Password==request.vars.password)).select(db.users.ALL)\n    if len(users) == 1:\n        response.flash = "successfully login"\n        session.login = True\n        session.userid = users[0][\'Username\']        \n        session.username = users[0][\'Name\']\n        redirect(URL(\'index\'))\n    else:\n        response.flash = T("Might be some Error")\n    return dict()\n\ndef logout():\n    if session.login:\n        session.login = False\n        redirect(URL(\'index\'))\n    \n    return dict()\n\ndef user():\n    """\n    exposes:\n    http://..../[app]/default/user/login \n    http://..../[app]/default/user/logout\n    http://..../[app]/default/user/register\n    http://..../[app]/default/user/profile\n    http://..../[app]/default/user/retrieve_password\n    http://..../[app]/default/user/change_password\n    use @auth.requires_login()\n        @auth.requires_membership(\'group name\')\n        @auth.requires_permission(\'read\',\'table name\',record_id)\n    to decorate functions that need access control\n    """\n    return dict(form=auth())\n\n\ndef download():\n    """\n    allows downloading of uploaded files\n    http://..../[app]/default/download/[filename]\n    """\n    return response.download(request,db)\n\n\ndef call():\n    """\n    exposes services. for example:\n    http://..../[app]/default/call/jsonrpc\n    decorate with @services.jsonrpc the functions to expose\n    supports xml, json, xmlrpc, jsonrpc, amfrpc, rss, csv\n    """\n    session.forget()\n    return service()\n\nresponse._vars=response._caller(settings)\n'
p7
sS'snapshot'
p8
(dp9
S'exception'
p10
(dp11
S'__hash__'
p12
S"<method-wrapper '__hash__' of exceptions.IndexError object at 0x0620DA30>"
p13
sS'__setattr__'
p14
S"<method-wrapper '__setattr__' of exceptions.IndexError object at 0x0620DA30>"
p15
sS'__reduce_ex__'
p16
S'<built-in method __reduce_ex__ of exceptions.IndexError object at 0x0620DA30>'
p17
sS'__getslice__'
p18
S"<method-wrapper '__getslice__' of exceptions.IndexError object at 0x0620DA30>"
p19
sS'__getitem__'
p20
S"<method-wrapper '__getitem__' of exceptions.IndexError object at 0x0620DA30>"
p21
sS'__setstate__'
p22
S'<built-in method __setstate__ of exceptions.IndexError object at 0x0620DA30>'
p23
sS'__reduce__'
p24
S'<built-in method __reduce__ of exceptions.IndexError object at 0x0620DA30>'
p25
sS'__str__'
p26
S"<method-wrapper '__str__' of exceptions.IndexError object at 0x0620DA30>"
p27
sS'args'
p28
S"('list index out of range',)"
p29
sS'__getattribute__'
p30
S"<method-wrapper '__getattribute__' of exceptions.IndexError object at 0x0620DA30>"
p31
sS'__class__'
p32
S"<type 'exceptions.IndexError'>"
p33
sS'__delattr__'
p34
S"<method-wrapper '__delattr__' of exceptions.IndexError object at 0x0620DA30>"
p35
sS'__repr__'
p36
S"<method-wrapper '__repr__' of exceptions.IndexError object at 0x0620DA30>"
p37
sS'__dict__'
p38
S'{}'
p39
sS'__doc__'
p40
S"'Sequence index out of range.'"
p41
sS'__init__'
p42
S"<method-wrapper '__init__' of exceptions.IndexError object at 0x0620DA30>"
p43
sS'__new__'
p44
S'<built-in method __new__ of type object at 0x1E1CDEF0>'
p45
ssS'evalue'
p46
S'list index out of range'
p47
sS'request'
p48
ccopy_reg
_reconstructor
p49
(cgluon.html
BEAUTIFY
p50
c__builtin__
object
p51
NtRp52
(dp53
S'attributes'
p54
(dp55
sS'components'
p56
(lp57
g49
(cgluon.html
TABLE
p58
g51
NtRp59
(dp60
g54
(dp61
S'level'
p62
I5
ssS'parent'
p63
Nsg56
(lp64
g49
(cgluon.html
TR
p65
g51
NtRp66
(dp67
g54
(dp68
sg63
g59
sg56
(lp69
g49
(cgluon.html
TD
p70
g51
NtRp71
(dp72
g54
(dp73
S'_style'
p74
S'font-weight:bold;vertical-align:top'
p75
ssg63
g66
sg56
(lp76
S'ajax'
p77
asbag49
(g70
g51
NtRp78
(dp79
g54
(dp80
S'_valign'
p81
S'top'
p82
ssg63
g66
sg56
(lp83
S':'
asbag49
(g70
g51
NtRp84
(dp85
g54
(dp86
sg63
g66
sg56
(lp87
g49
(g50
g51
NtRp88
(dp89
g54
(dp90
g62
I5
ssg63
g84
sg56
(lp91
S'False'
p92
asbasbasbag49
(g65
g51
NtRp93
(dp94
g54
(dp95
sg63
g59
sg56
(lp96
g49
(g70
g51
NtRp97
(dp98
g54
(dp99
g74
g75
ssg63
g93
sg56
(lp100
S'application'
p101
asbag49
(g70
g51
NtRp102
(dp103
g54
(dp104
g81
g82
ssg63
g93
sg56
(lp105
S':'
asbag49
(g70
g51
NtRp106
(dp107
g54
(dp108
sg63
g93
sg56
(lp109
g49
(g50
g51
NtRp110
(dp111
g54
(dp112
g62
I5
ssg63
g106
sg56
(lp113
S'Golf_2'
p114
asbasbasbag49
(g65
g51
NtRp115
(dp116
g54
(dp117
sg63
g59
sg56
(lp118
g49
(g70
g51
NtRp119
(dp120
g54
(dp121
g74
g75
ssg63
g115
sg56
(lp122
g28
asbag49
(g70
g51
NtRp123
(dp124
g54
(dp125
g81
g82
ssg63
g115
sg56
(lp126
S':'
asbag49
(g70
g51
NtRp127
(dp128
g54
(dp129
sg63
g115
sg56
(lp130
g49
(g50
g51
NtRp131
(dp132
g54
(dp133
g62
I5
ssg63
g127
sg56
(lp134
g49
(g58
g51
NtRp135
(dp136
g54
(dp137
g62
I4
ssg63
Nsg56
(lp138
sbasbasbasbag49
(g65
g51
NtRp139
(dp140
g54
(dp141
sg63
g59
sg56
(lp142
g49
(g70
g51
NtRp143
(dp144
g54
(dp145
g74
g75
ssg63
g139
sg56
(lp146
S'body'
p147
asbag49
(g70
g51
NtRp148
(dp149
g54
(dp150
g81
g82
ssg63
g139
sg56
(lp151
S':'
asbag49
(g70
g51
NtRp152
(dp153
g54
(dp154
sg63
g139
sg56
(lp155
g49
(g50
g51
NtRp156
(dp157
g54
(dp158
g62
I5
ssg63
g152
sg56
(lp159
S'<cStringIO.StringO object at 0x05D9B380>'
p160
asbasbasbag49
(g65
g51
NtRp161
(dp162
g54
(dp163
sg63
g59
sg56
(lp164
g49
(g70
g51
NtRp165
(dp166
g54
(dp167
g74
g75
ssg63
g161
sg56
(lp168
S'client'
p169
asbag49
(g70
g51
NtRp170
(dp171
g54
(dp172
g81
g82
ssg63
g161
sg56
(lp173
S':'
asbag49
(g70
g51
NtRp174
(dp175
g54
(dp176
sg63
g161
sg56
(lp177
g49
(g50
g51
NtRp178
(dp179
g54
(dp180
g62
I5
ssg63
g174
sg56
(lp181
S'127.0.0.1'
p182
asbasbasbag49
(g65
g51
NtRp183
(dp184
g54
(dp185
sg63
g59
sg56
(lp186
g49
(g70
g51
NtRp187
(dp188
g54
(dp189
g74
g75
ssg63
g183
sg56
(lp190
S'controller'
p191
asbag49
(g70
g51
NtRp192
(dp193
g54
(dp194
g81
g82
ssg63
g183
sg56
(lp195
S':'
asbag49
(g70
g51
NtRp196
(dp197
g54
(dp198
sg63
g183
sg56
(lp199
g49
(g50
g51
NtRp200
(dp201
g54
(dp202
g62
I5
ssg63
g196
sg56
(lp203
S'default'
p204
asbasbasbag49
(g65
g51
NtRp205
(dp206
g54
(dp207
sg63
g59
sg56
(lp208
g49
(g70
g51
NtRp209
(dp210
g54
(dp211
g74
g75
ssg63
g205
sg56
(lp212
S'cookies'
p213
asbag49
(g70
g51
NtRp214
(dp215
g54
(dp216
g81
g82
ssg63
g205
sg56
(lp217
S':'
asbag49
(g70
g51
NtRp218
(dp219
g54
(dp220
sg63
g205
sg56
(lp221
g49
(g50
g51
NtRp222
(dp223
g54
(dp224
g62
I5
ssg63
g218
sg56
(lp225
g49
(g58
g51
NtRp226
(dp227
g54
(dp228
g62
I4
ssg63
Nsg56
(lp229
g49
(g65
g51
NtRp230
(dp231
g54
(dp232
sg63
g226
sg56
(lp233
g49
(g70
g51
NtRp234
(dp235
g54
(dp236
g74
g75
ssg63
g230
sg56
(lp237
S'session_id_admin'
p238
asbag49
(g70
g51
NtRp239
(dp240
g54
(dp241
g81
g82
ssg63
g230
sg56
(lp242
S':'
asbag49
(g70
g51
NtRp243
(dp244
g54
(dp245
sg63
g230
sg56
(lp246
g49
(g50
g51
NtRp247
(dp248
g54
(dp249
g62
I4
ssg63
g243
sg56
(lp250
g49
(g58
g51
NtRp251
(dp252
g54
(dp253
g62
I3
ssg63
Nsg56
(lp254
g49
(g65
g51
NtRp255
(dp256
g54
(dp257
sg63
g251
sg56
(lp258
g49
(g70
g51
NtRp259
(dp260
g54
(dp261
g74
g75
ssg63
g255
sg56
(lp262
S'comment'
p263
asbag49
(g70
g51
NtRp264
(dp265
g54
(dp266
g81
g82
ssg63
g255
sg56
(lp267
S':'
asbag49
(g70
g51
NtRp268
(dp269
g54
(dp270
sg63
g255
sg56
(lp271
g49
(g50
g51
NtRp272
(dp273
g54
(dp274
g62
I3
ssg63
g268
sg56
(lp275
S''
asbasbasbag49
(g65
g51
NtRp276
(dp277
g54
(dp278
sg63
g251
sg56
(lp279
g49
(g70
g51
NtRp280
(dp281
g54
(dp282
g74
g75
ssg63
g276
sg56
(lp283
S'domain'
p284
asbag49
(g70
g51
NtRp285
(dp286
g54
(dp287
g81
g82
ssg63
g276
sg56
(lp288
S':'
asbag49
(g70
g51
NtRp289
(dp290
g54
(dp291
sg63
g276
sg56
(lp292
g49
(g50
g51
NtRp293
(dp294
g54
(dp295
g62
I3
ssg63
g289
sg56
(lp296
S''
asbasbasbag49
(g65
g51
NtRp297
(dp298
g54
(dp299
sg63
g251
sg56
(lp300
g49
(g70
g51
NtRp301
(dp302
g54
(dp303
g74
g75
ssg63
g297
sg56
(lp304
S'expires'
p305
asbag49
(g70
g51
NtRp306
(dp307
g54
(dp308
g81
g82
ssg63
g297
sg56
(lp309
S':'
asbag49
(g70
g51
NtRp310
(dp311
g54
(dp312
sg63
g297
sg56
(lp313
g49
(g50
g51
NtRp314
(dp315
g54
(dp316
g62
I3
ssg63
g310
sg56
(lp317
S''
asbasbasbag49
(g65
g51
NtRp318
(dp319
g54
(dp320
sg63
g251
sg56
(lp321
g49
(g70
g51
NtRp322
(dp323
g54
(dp324
g74
g75
ssg63
g318
sg56
(lp325
S'max-age'
p326
asbag49
(g70
g51
NtRp327
(dp328
g54
(dp329
g81
g82
ssg63
g318
sg56
(lp330
S':'
asbag49
(g70
g51
NtRp331
(dp332
g54
(dp333
sg63
g318
sg56
(lp334
g49
(g50
g51
NtRp335
(dp336
g54
(dp337
g62
I3
ssg63
g331
sg56
(lp338
S''
asbasbasbag49
(g65
g51
NtRp339
(dp340
g54
(dp341
sg63
g251
sg56
(lp342
g49
(g70
g51
NtRp343
(dp344
g54
(dp345
g74
g75
ssg63
g339
sg56
(lp346
S'path'
p347
asbag49
(g70
g51
NtRp348
(dp349
g54
(dp350
g81
g82
ssg63
g339
sg56
(lp351
S':'
asbag49
(g70
g51
NtRp352
(dp353
g54
(dp354
sg63
g339
sg56
(lp355
g49
(g50
g51
NtRp356
(dp357
g54
(dp358
g62
I3
ssg63
g352
sg56
(lp359
S''
asbasbasbag49
(g65
g51
NtRp360
(dp361
g54
(dp362
sg63
g251
sg56
(lp363
g49
(g70
g51
NtRp364
(dp365
g54
(dp366
g74
g75
ssg63
g360
sg56
(lp367
S'secure'
p368
asbag49
(g70
g51
NtRp369
(dp370
g54
(dp371
g81
g82
ssg63
g360
sg56
(lp372
S':'
asbag49
(g70
g51
NtRp373
(dp374
g54
(dp375
sg63
g360
sg56
(lp376
g49
(g50
g51
NtRp377
(dp378
g54
(dp379
g62
I3
ssg63
g373
sg56
(lp380
S''
asbasbasbag49
(g65
g51
NtRp381
(dp382
g54
(dp383
sg63
g251
sg56
(lp384
g49
(g70
g51
NtRp385
(dp386
g54
(dp387
g74
g75
ssg63
g381
sg56
(lp388
S'version'
p389
asbag49
(g70
g51
NtRp390
(dp391
g54
(dp392
g81
g82
ssg63
g381
sg56
(lp393
S':'
asbag49
(g70
g51
NtRp394
(dp395
g54
(dp396
sg63
g381
sg56
(lp397
g49
(g50
g51
NtRp398
(dp399
g54
(dp400
g62
I3
ssg63
g394
sg56
(lp401
S''
asbasbasbasbasbasbasbag49
(g65
g51
NtRp402
(dp403
g54
(dp404
sg63
g226
sg56
(lp405
g49
(g70
g51
NtRp406
(dp407
g54
(dp408
g74
g75
ssg63
g402
sg56
(lp409
S'session_id_golf_2'
p410
asbag49
(g70
g51
NtRp411
(dp412
g54
(dp413
g81
g82
ssg63
g402
sg56
(lp414
S':'
asbag49
(g70
g51
NtRp415
(dp416
g54
(dp417
sg63
g402
sg56
(lp418
g49
(g50
g51
NtRp419
(dp420
g54
(dp421
g62
I4
ssg63
g415
sg56
(lp422
g49
(g58
g51
NtRp423
(dp424
g54
(dp425
g62
I3
ssg63
Nsg56
(lp426
g49
(g65
g51
NtRp427
(dp428
g54
(dp429
sg63
g423
sg56
(lp430
g49
(g70
g51
NtRp431
(dp432
g54
(dp433
g74
g75
ssg63
g427
sg56
(lp434
g263
asbag49
(g70
g51
NtRp435
(dp436
g54
(dp437
g81
g82
ssg63
g427
sg56
(lp438
S':'
asbag49
(g70
g51
NtRp439
(dp440
g54
(dp441
sg63
g427
sg56
(lp442
g49
(g50
g51
NtRp443
(dp444
g54
(dp445
g62
I3
ssg63
g439
sg56
(lp446
S''
asbasbasbag49
(g65
g51
NtRp447
(dp448
g54
(dp449
sg63
g423
sg56
(lp450
g49
(g70
g51
NtRp451
(dp452
g54
(dp453
g74
g75
ssg63
g447
sg56
(lp454
g284
asbag49
(g70
g51
NtRp455
(dp456
g54
(dp457
g81
g82
ssg63
g447
sg56
(lp458
S':'
asbag49
(g70
g51
NtRp459
(dp460
g54
(dp461
sg63
g447
sg56
(lp462
g49
(g50
g51
NtRp463
(dp464
g54
(dp465
g62
I3
ssg63
g459
sg56
(lp466
S''
asbasbasbag49
(g65
g51
NtRp467
(dp468
g54
(dp469
sg63
g423
sg56
(lp470
g49
(g70
g51
NtRp471
(dp472
g54
(dp473
g74
g75
ssg63
g467
sg56
(lp474
g305
asbag49
(g70
g51
NtRp475
(dp476
g54
(dp477
g81
g82
ssg63
g467
sg56
(lp478
S':'
asbag49
(g70
g51
NtRp479
(dp480
g54
(dp481
sg63
g467
sg56
(lp482
g49
(g50
g51
NtRp483
(dp484
g54
(dp485
g62
I3
ssg63
g479
sg56
(lp486
S''
asbasbasbag49
(g65
g51
NtRp487
(dp488
g54
(dp489
sg63
g423
sg56
(lp490
g49
(g70
g51
NtRp491
(dp492
g54
(dp493
g74
g75
ssg63
g487
sg56
(lp494
g326
asbag49
(g70
g51
NtRp495
(dp496
g54
(dp497
g81
g82
ssg63
g487
sg56
(lp498
S':'
asbag49
(g70
g51
NtRp499
(dp500
g54
(dp501
sg63
g487
sg56
(lp502
g49
(g50
g51
NtRp503
(dp504
g54
(dp505
g62
I3
ssg63
g499
sg56
(lp506
S''
asbasbasbag49
(g65
g51
NtRp507
(dp508
g54
(dp509
sg63
g423
sg56
(lp510
g49
(g70
g51
NtRp511
(dp512
g54
(dp513
g74
g75
ssg63
g507
sg56
(lp514
g347
asbag49
(g70
g51
NtRp515
(dp516
g54
(dp517
g81
g82
ssg63
g507
sg56
(lp518
S':'
asbag49
(g70
g51
NtRp519
(dp520
g54
(dp521
sg63
g507
sg56
(lp522
g49
(g50
g51
NtRp523
(dp524
g54
(dp525
g62
I3
ssg63
g519
sg56
(lp526
S''
asbasbasbag49
(g65
g51
NtRp527
(dp528
g54
(dp529
sg63
g423
sg56
(lp530
g49
(g70
g51
NtRp531
(dp532
g54
(dp533
g74
g75
ssg63
g527
sg56
(lp534
g368
asbag49
(g70
g51
NtRp535
(dp536
g54
(dp537
g81
g82
ssg63
g527
sg56
(lp538
S':'
asbag49
(g70
g51
NtRp539
(dp540
g54
(dp541
sg63
g527
sg56
(lp542
g49
(g50
g51
NtRp543
(dp544
g54
(dp545
g62
I3
ssg63
g539
sg56
(lp546
S''
asbasbasbag49
(g65
g51
NtRp547
(dp548
g54
(dp549
sg63
g423
sg56
(lp550
g49
(g70
g51
NtRp551
(dp552
g54
(dp553
g74
g75
ssg63
g547
sg56
(lp554
g389
asbag49
(g70
g51
NtRp555
(dp556
g54
(dp557
g81
g82
ssg63
g547
sg56
(lp558
S':'
asbag49
(g70
g51
NtRp559
(dp560
g54
(dp561
sg63
g547
sg56
(lp562
g49
(g50
g51
NtRp563
(dp564
g54
(dp565
g62
I3
ssg63
g559
sg56
(lp566
S''
asbasbasbasbasbasbasbag49
(g65
g51
NtRp567
(dp568
g54
(dp569
sg63
g226
sg56
(lp570
g49
(g70
g51
NtRp571
(dp572
g54
(dp573
g74
g75
ssg63
g567
sg56
(lp574
S'session_id_welcome'
p575
asbag49
(g70
g51
NtRp576
(dp577
g54
(dp578
g81
g82
ssg63
g567
sg56
(lp579
S':'
asbag49
(g70
g51
NtRp580
(dp581
g54
(dp582
sg63
g567
sg56
(lp583
g49
(g50
g51
NtRp584
(dp585
g54
(dp586
g62
I4
ssg63
g580
sg56
(lp587
g49
(g58
g51
NtRp588
(dp589
g54
(dp590
g62
I3
ssg63
Nsg56
(lp591
g49
(g65
g51
NtRp592
(dp593
g54
(dp594
sg63
g588
sg56
(lp595
g49
(g70
g51
NtRp596
(dp597
g54
(dp598
g74
g75
ssg63
g592
sg56
(lp599
g263
asbag49
(g70
g51
NtRp600
(dp601
g54
(dp602
g81
g82
ssg63
g592
sg56
(lp603
S':'
asbag49
(g70
g51
NtRp604
(dp605
g54
(dp606
sg63
g592
sg56
(lp607
g49
(g50
g51
NtRp608
(dp609
g54
(dp610
g62
I3
ssg63
g604
sg56
(lp611
S''
asbasbasbag49
(g65
g51
NtRp612
(dp613
g54
(dp614
sg63
g588
sg56
(lp615
g49
(g70
g51
NtRp616
(dp617
g54
(dp618
g74
g75
ssg63
g612
sg56
(lp619
g284
asbag49
(g70
g51
NtRp620
(dp621
g54
(dp622
g81
g82
ssg63
g612
sg56
(lp623
S':'
asbag49
(g70
g51
NtRp624
(dp625
g54
(dp626
sg63
g612
sg56
(lp627
g49
(g50
g51
NtRp628
(dp629
g54
(dp630
g62
I3
ssg63
g624
sg56
(lp631
S''
asbasbasbag49
(g65
g51
NtRp632
(dp633
g54
(dp634
sg63
g588
sg56
(lp635
g49
(g70
g51
NtRp636
(dp637
g54
(dp638
g74
g75
ssg63
g632
sg56
(lp639
g305
asbag49
(g70
g51
NtRp640
(dp641
g54
(dp642
g81
g82
ssg63
g632
sg56
(lp643
S':'
asbag49
(g70
g51
NtRp644
(dp645
g54
(dp646
sg63
g632
sg56
(lp647
g49
(g50
g51
NtRp648
(dp649
g54
(dp650
g62
I3
ssg63
g644
sg56
(lp651
S''
asbasbasbag49
(g65
g51
NtRp652
(dp653
g54
(dp654
sg63
g588
sg56
(lp655
g49
(g70
g51
NtRp656
(dp657
g54
(dp658
g74
g75
ssg63
g652
sg56
(lp659
g326
asbag49
(g70
g51
NtRp660
(dp661
g54
(dp662
g81
g82
ssg63
g652
sg56
(lp663
S':'
asbag49
(g70
g51
NtRp664
(dp665
g54
(dp666
sg63
g652
sg56
(lp667
g49
(g50
g51
NtRp668
(dp669
g54
(dp670
g62
I3
ssg63
g664
sg56
(lp671
S''
asbasbasbag49
(g65
g51
NtRp672
(dp673
g54
(dp674
sg63
g588
sg56
(lp675
g49
(g70
g51
NtRp676
(dp677
g54
(dp678
g74
g75
ssg63
g672
sg56
(lp679
g347
asbag49
(g70
g51
NtRp680
(dp681
g54
(dp682
g81
g82
ssg63
g672
sg56
(lp683
S':'
asbag49
(g70
g51
NtRp684
(dp685
g54
(dp686
sg63
g672
sg56
(lp687
g49
(g50
g51
NtRp688
(dp689
g54
(dp690
g62
I3
ssg63
g684
sg56
(lp691
S''
asbasbasbag49
(g65
g51
NtRp692
(dp693
g54
(dp694
sg63
g588
sg56
(lp695
g49
(g70
g51
NtRp696
(dp697
g54
(dp698
g74
g75
ssg63
g692
sg56
(lp699
g368
asbag49
(g70
g51
NtRp700
(dp701
g54
(dp702
g81
g82
ssg63
g692
sg56
(lp703
S':'
asbag49
(g70
g51
NtRp704
(dp705
g54
(dp706
sg63
g692
sg56
(lp707
g49
(g50
g51
NtRp708
(dp709
g54
(dp710
g62
I3
ssg63
g704
sg56
(lp711
S''
asbasbasbag49
(g65
g51
NtRp712
(dp713
g54
(dp714
sg63
g588
sg56
(lp715
g49
(g70
g51
NtRp716
(dp717
g54
(dp718
g74
g75
ssg63
g712
sg56
(lp719
g389
asbag49
(g70
g51
NtRp720
(dp721
g54
(dp722
g81
g82
ssg63
g712
sg56
(lp723
S':'
asbag49
(g70
g51
NtRp724
(dp725
g54
(dp726
sg63
g712
sg56
(lp727
g49
(g50
g51
NtRp728
(dp729
g54
(dp730
g62
I3
ssg63
g724
sg56
(lp731
S''
asbasbasbasbasbasbasbasbasbasbasbag49
(g65
g51
NtRp732
(dp733
g54
(dp734
sg63
g59
sg56
(lp735
g49
(g70
g51
NtRp736
(dp737
g54
(dp738
g74
g75
ssg63
g732
sg56
(lp739
S'env'
p740
asbag49
(g70
g51
NtRp741
(dp742
g54
(dp743
g81
g82
ssg63
g732
sg56
(lp744
S':'
asbag49
(g70
g51
NtRp745
(dp746
g54
(dp747
sg63
g732
sg56
(lp748
g49
(g50
g51
NtRp749
(dp750
g54
(dp751
g62
I5
ssg63
g745
sg56
(lp752
g49
(g58
g51
NtRp753
(dp754
g54
(dp755
g62
I4
ssg63
Nsg56
(lp756
g49
(g65
g51
NtRp757
(dp758
g54
(dp759
sg63
g753
sg56
(lp760
g49
(g70
g51
NtRp761
(dp762
g54
(dp763
g74
g75
ssg63
g757
sg56
(lp764
S'app_folders'
p765
asbag49
(g70
g51
NtRp766
(dp767
g54
(dp768
g81
g82
ssg63
g757
sg56
(lp769
S':'
asbag49
(g70
g51
NtRp770
(dp771
g54
(dp772
sg63
g757
sg56
(lp773
g49
(g50
g51
NtRp774
(dp775
g54
(dp776
g62
I4
ssg63
g770
sg56
(lp777
S"set(['C:\\\\Users\\\\avjain\\\\Downloads\\\\web2py\\\\applications\\\\Golf_2\\\\', 'C:\\\\Users\\\\avjain\\\\Downloads\\\\web2py\\\\applications\\\\admin\\\\', 'C:\\\\Users\\\\avjain\\\\Downloads\\\\web2py\\\\applications\\\\welcome\\\\'])"
p778
asbasbasbag49
(g65
g51
NtRp779
(dp780
g54
(dp781
sg63
g753
sg56
(lp782
g49
(g70
g51
NtRp783
(dp784
g54
(dp785
g74
g75
ssg63
g779
sg56
(lp786
S'applications_parent'
p787
asbag49
(g70
g51
NtRp788
(dp789
g54
(dp790
g81
g82
ssg63
g779
sg56
(lp791
S':'
asbag49
(g70
g51
NtRp792
(dp793
g54
(dp794
sg63
g779
sg56
(lp795
g49
(g50
g51
NtRp796
(dp797
g54
(dp798
g62
I4
ssg63
g792
sg56
(lp799
S'C:\\Users\\avjain\\Downloads\\web2py'
p800
asbasbasbag49
(g65
g51
NtRp801
(dp802
g54
(dp803
sg63
g753
sg56
(lp804
g49
(g70
g51
NtRp805
(dp806
g54
(dp807
g74
g75
ssg63
g801
sg56
(lp808
S'cmd_args'
p809
asbag49
(g70
g51
NtRp810
(dp811
g54
(dp812
g81
g82
ssg63
g801
sg56
(lp813
S':'
asbag49
(g70
g51
NtRp814
(dp815
g54
(dp816
sg63
g801
sg56
(lp817
g49
(g50
g51
NtRp818
(dp819
g54
(dp820
g62
I4
ssg63
g814
sg56
(lp821
g49
(g58
g51
NtRp822
(dp823
g54
(dp824
g62
I3
ssg63
Nsg56
(lp825
sbasbasbasbag49
(g65
g51
NtRp826
(dp827
g54
(dp828
sg63
g753
sg56
(lp829
g49
(g70
g51
NtRp830
(dp831
g54
(dp832
g74
g75
ssg63
g826
sg56
(lp833
S'cmd_options'
p834
asbag49
(g70
g51
NtRp835
(dp836
g54
(dp837
g81
g82
ssg63
g826
sg56
(lp838
S':'
asbag49
(g70
g51
NtRp839
(dp840
g54
(dp841
sg63
g826
sg56
(lp842
g49
(g50
g51
NtRp843
(dp844
g54
(dp845
g62
I4
ssg63
g839
sg56
(lp846
S"<Values at 0x2764f80: {'verbose': False, 'ip': '127.0.0.1', 'shutdown_timeout': 5, 'taskbar': False, 'nocron': False, 'pid_filename': 'httpserver.pid', 'maxthreads': None, 'softcron': False, 'server_name': 'NBHYDAVJAIN7', 'bpython': False, 'nogui': False, 'port': 8000, 'extcron': False, 'debuglevel': 30, 'test': None, 'folder': 'C:\\\\Users\\\\avjain\\\\Downloads\\\\web2py', 'config': '', 'import_models': False, 'winservice': '', 'shell': None, 'run': '', 'log_filename': 'httpserver.log', 'args': [''], 'socket_timeout': 5, 'ssl_ca_certificate': None, 'scheduler': None, 'profiler_filename': None, 'ssl_private_key': '', 'password': '<ask>', 'request_queue_size': 5, 'ssl_certificate': '', 'cronjob': False, 'numthreads': None, 'quiet': False, 'interfaces': None, 'minthreads': None, 'timeout': 10, 'plain': False, 'nobanner': False}>"
p847
asbasbasbag49
(g65
g51
NtRp848
(dp849
g54
(dp850
sg63
g753
sg56
(lp851
g49
(g70
g51
NtRp852
(dp853
g54
(dp854
g74
g75
ssg63
g848
sg56
(lp855
S'db_sessions'
p856
asbag49
(g70
g51
NtRp857
(dp858
g54
(dp859
g81
g82
ssg63
g848
sg56
(lp860
S':'
asbag49
(g70
g51
NtRp861
(dp862
g54
(dp863
sg63
g848
sg56
(lp864
g49
(g50
g51
NtRp865
(dp866
g54
(dp867
g62
I4
ssg63
g861
sg56
(lp868
S'set([])'
p869
asbasbasbag49
(g65
g51
NtRp870
(dp871
g54
(dp872
sg63
g753
sg56
(lp873
g49
(g70
g51
NtRp874
(dp875
g54
(dp876
g74
g75
ssg63
g870
sg56
(lp877
S'debugging'
p878
asbag49
(g70
g51
NtRp879
(dp880
g54
(dp881
g81
g82
ssg63
g870
sg56
(lp882
S':'
asbag49
(g70
g51
NtRp883
(dp884
g54
(dp885
sg63
g870
sg56
(lp886
g49
(g50
g51
NtRp887
(dp888
g54
(dp889
g62
I4
ssg63
g883
sg56
(lp890
g92
asbasbasbag49
(g65
g51
NtRp891
(dp892
g54
(dp893
sg63
g753
sg56
(lp894
g49
(g70
g51
NtRp895
(dp896
g54
(dp897
g74
g75
ssg63
g891
sg56
(lp898
S'gluon_parent'
p899
asbag49
(g70
g51
NtRp900
(dp901
g54
(dp902
g81
g82
ssg63
g891
sg56
(lp903
S':'
asbag49
(g70
g51
NtRp904
(dp905
g54
(dp906
sg63
g891
sg56
(lp907
g49
(g50
g51
NtRp908
(dp909
g54
(dp910
g62
I4
ssg63
g904
sg56
(lp911
S'C:\\Users\\avjain\\Downloads\\web2py'
p912
asbasbasbag49
(g65
g51
NtRp913
(dp914
g54
(dp915
sg63
g753
sg56
(lp916
g49
(g70
g51
NtRp917
(dp918
g54
(dp919
g74
g75
ssg63
g913
sg56
(lp920
S'http_accept'
p921
asbag49
(g70
g51
NtRp922
(dp923
g54
(dp924
g81
g82
ssg63
g913
sg56
(lp925
S':'
asbag49
(g70
g51
NtRp926
(dp927
g54
(dp928
sg63
g913
sg56
(lp929
g49
(g50
g51
NtRp930
(dp931
g54
(dp932
g62
I4
ssg63
g926
sg56
(lp933
S'text/html,application/xhtml+xml,application/xml;q=0.9,*/*;q=0.8'
p934
asbasbasbag49
(g65
g51
NtRp935
(dp936
g54
(dp937
sg63
g753
sg56
(lp938
g49
(g70
g51
NtRp939
(dp940
g54
(dp941
g74
g75
ssg63
g935
sg56
(lp942
S'http_accept_charset'
p943
asbag49
(g70
g51
NtRp944
(dp945
g54
(dp946
g81
g82
ssg63
g935
sg56
(lp947
S':'
asbag49
(g70
g51
NtRp948
(dp949
g54
(dp950
sg63
g935
sg56
(lp951
g49
(g50
g51
NtRp952
(dp953
g54
(dp954
g62
I4
ssg63
g948
sg56
(lp955
S'ISO-8859-1,utf-8;q=0.7,*;q=0.3'
p956
asbasbasbag49
(g65
g51
NtRp957
(dp958
g54
(dp959
sg63
g753
sg56
(lp960
g49
(g70
g51
NtRp961
(dp962
g54
(dp963
g74
g75
ssg63
g957
sg56
(lp964
S'http_accept_encoding'
p965
asbag49
(g70
g51
NtRp966
(dp967
g54
(dp968
g81
g82
ssg63
g957
sg56
(lp969
S':'
asbag49
(g70
g51
NtRp970
(dp971
g54
(dp972
sg63
g957
sg56
(lp973
g49
(g50
g51
NtRp974
(dp975
g54
(dp976
g62
I4
ssg63
g970
sg56
(lp977
S'gzip,deflate,sdch'
p978
asbasbasbag49
(g65
g51
NtRp979
(dp980
g54
(dp981
sg63
g753
sg56
(lp982
g49
(g70
g51
NtRp983
(dp984
g54
(dp985
g74
g75
ssg63
g979
sg56
(lp986
S'http_accept_language'
p987
asbag49
(g70
g51
NtRp988
(dp989
g54
(dp990
g81
g82
ssg63
g979
sg56
(lp991
S':'
asbag49
(g70
g51
NtRp992
(dp993
g54
(dp994
sg63
g979
sg56
(lp995
g49
(g50
g51
NtRp996
(dp997
g54
(dp998
g62
I4
ssg63
g992
sg56
(lp999
S'en-US,en;q=0.8'
p1000
asbasbasbag49
(g65
g51
NtRp1001
(dp1002
g54
(dp1003
sg63
g753
sg56
(lp1004
g49
(g70
g51
NtRp1005
(dp1006
g54
(dp1007
g74
g75
ssg63
g1001
sg56
(lp1008
S'http_cache_control'
p1009
asbag49
(g70
g51
NtRp1010
(dp1011
g54
(dp1012
g81
g82
ssg63
g1001
sg56
(lp1013
S':'
asbag49
(g70
g51
NtRp1014
(dp1015
g54
(dp1016
sg63
g1001
sg56
(lp1017
g49
(g50
g51
NtRp1018
(dp1019
g54
(dp1020
g62
I4
ssg63
g1014
sg56
(lp1021
S'max-age=0'
p1022
asbasbasbag49
(g65
g51
NtRp1023
(dp1024
g54
(dp1025
sg63
g753
sg56
(lp1026
g49
(g70
g51
NtRp1027
(dp1028
g54
(dp1029
g74
g75
ssg63
g1023
sg56
(lp1030
S'http_connection'
p1031
asbag49
(g70
g51
NtRp1032
(dp1033
g54
(dp1034
g81
g82
ssg63
g1023
sg56
(lp1035
S':'
asbag49
(g70
g51
NtRp1036
(dp1037
g54
(dp1038
sg63
g1023
sg56
(lp1039
g49
(g50
g51
NtRp1040
(dp1041
g54
(dp1042
g62
I4
ssg63
g1036
sg56
(lp1043
S'keep-alive'
p1044
asbasbasbag49
(g65
g51
NtRp1045
(dp1046
g54
(dp1047
sg63
g753
sg56
(lp1048
g49
(g70
g51
NtRp1049
(dp1050
g54
(dp1051
g74
g75
ssg63
g1045
sg56
(lp1052
S'http_cookie'
p1053
asbag49
(g70
g51
NtRp1054
(dp1055
g54
(dp1056
g81
g82
ssg63
g1045
sg56
(lp1057
S':'
asbag49
(g70
g51
NtRp1058
(dp1059
g54
(dp1060
sg63
g1045
sg56
(lp1061
g49
(g50
g51
NtRp1062
(dp1063
g54
(dp1064
g62
I4
ssg63
g1058
sg56
(lp1065
S'session_id_welcome=127.0.0.1-b39ccd9c-cd3e-4de0-b1f4-081c18b13123; session_id_golf_2=127.0.0.1-b2abb96c-79bd-455e-bf11-447a7eebe1ee; session_id_admin=127.0.0.1-33d76dc4-edaa-46e7-b843-af611ed95a23'
p1066
asbasbasbag49
(g65
g51
NtRp1067
(dp1068
g54
(dp1069
sg63
g753
sg56
(lp1070
g49
(g70
g51
NtRp1071
(dp1072
g54
(dp1073
g74
g75
ssg63
g1067
sg56
(lp1074
S'http_host'
p1075
asbag49
(g70
g51
NtRp1076
(dp1077
g54
(dp1078
g81
g82
ssg63
g1067
sg56
(lp1079
S':'
asbag49
(g70
g51
NtRp1080
(dp1081
g54
(dp1082
sg63
g1067
sg56
(lp1083
g49
(g50
g51
NtRp1084
(dp1085
g54
(dp1086
g62
I4
ssg63
g1080
sg56
(lp1087
S'127.0.0.1:8000'
p1088
asbasbasbag49
(g65
g51
NtRp1089
(dp1090
g54
(dp1091
sg63
g753
sg56
(lp1092
g49
(g70
g51
NtRp1093
(dp1094
g54
(dp1095
g74
g75
ssg63
g1089
sg56
(lp1096
S'http_referer'
p1097
asbag49
(g70
g51
NtRp1098
(dp1099
g54
(dp1100
g81
g82
ssg63
g1089
sg56
(lp1101
S':'
asbag49
(g70
g51
NtRp1102
(dp1103
g54
(dp1104
sg63
g1089
sg56
(lp1105
g49
(g50
g51
NtRp1106
(dp1107
g54
(dp1108
g62
I4
ssg63
g1102
sg56
(lp1109
S'http://127.0.0.1:8000/Golf_2/default/index'
p1110
asbasbasbag49
(g65
g51
NtRp1111
(dp1112
g54
(dp1113
sg63
g753
sg56
(lp1114
g49
(g70
g51
NtRp1115
(dp1116
g54
(dp1117
g74
g75
ssg63
g1111
sg56
(lp1118
S'http_user_agent'
p1119
asbag49
(g70
g51
NtRp1120
(dp1121
g54
(dp1122
g81
g82
ssg63
g1111
sg56
(lp1123
S':'
asbag49
(g70
g51
NtRp1124
(dp1125
g54
(dp1126
sg63
g1111
sg56
(lp1127
g49
(g50
g51
NtRp1128
(dp1129
g54
(dp1130
g62
I4
ssg63
g1124
sg56
(lp1131
S'Mozilla/5.0 (Windows NT 6.1) AppleWebKit/536.11 (KHTML, like Gecko) Chrome/20.0.1132.57 Safari/536.11'
p1132
asbasbasbag49
(g65
g51
NtRp1133
(dp1134
g54
(dp1135
sg63
g753
sg56
(lp1136
g49
(g70
g51
NtRp1137
(dp1138
g54
(dp1139
g74
g75
ssg63
g1133
sg56
(lp1140
S'is_jython'
p1141
asbag49
(g70
g51
NtRp1142
(dp1143
g54
(dp1144
g81
g82
ssg63
g1133
sg56
(lp1145
S':'
asbag49
(g70
g51
NtRp1146
(dp1147
g54
(dp1148
sg63
g1133
sg56
(lp1149
g49
(g50
g51
NtRp1150
(dp1151
g54
(dp1152
g62
I4
ssg63
g1146
sg56
(lp1153
g92
asbasbasbag49
(g65
g51
NtRp1154
(dp1155
g54
(dp1156
sg63
g753
sg56
(lp1157
g49
(g70
g51
NtRp1158
(dp1159
g54
(dp1160
g74
g75
ssg63
g1154
sg56
(lp1161
S'is_pypy'
p1162
asbag49
(g70
g51
NtRp1163
(dp1164
g54
(dp1165
g81
g82
ssg63
g1154
sg56
(lp1166
S':'
asbag49
(g70
g51
NtRp1167
(dp1168
g54
(dp1169
sg63
g1154
sg56
(lp1170
g49
(g50
g51
NtRp1171
(dp1172
g54
(dp1173
g62
I4
ssg63
g1167
sg56
(lp1174
g92
asbasbasbag49
(g65
g51
NtRp1175
(dp1176
g54
(dp1177
sg63
g753
sg56
(lp1178
g49
(g70
g51
NtRp1179
(dp1180
g54
(dp1181
g74
g75
ssg63
g1175
sg56
(lp1182
S'path_info'
p1183
asbag49
(g70
g51
NtRp1184
(dp1185
g54
(dp1186
g81
g82
ssg63
g1175
sg56
(lp1187
S':'
asbag49
(g70
g51
NtRp1188
(dp1189
g54
(dp1190
sg63
g1175
sg56
(lp1191
g49
(g50
g51
NtRp1192
(dp1193
g54
(dp1194
g62
I4
ssg63
g1188
sg56
(lp1195
S'/Golf_2/default/settings.html'
p1196
asbasbasbag49
(g65
g51
NtRp1197
(dp1198
g54
(dp1199
sg63
g753
sg56
(lp1200
g49
(g70
g51
NtRp1201
(dp1202
g54
(dp1203
g74
g75
ssg63
g1197
sg56
(lp1204
S'query_string'
p1205
asbag49
(g70
g51
NtRp1206
(dp1207
g54
(dp1208
g81
g82
ssg63
g1197
sg56
(lp1209
S':'
asbag49
(g70
g51
NtRp1210
(dp1211
g54
(dp1212
sg63
g1197
sg56
(lp1213
g49
(g50
g51
NtRp1214
(dp1215
g54
(dp1216
g62
I4
ssg63
g1210
sg56
(lp1217
S''
asbasbasbag49
(g65
g51
NtRp1218
(dp1219
g54
(dp1220
sg63
g753
sg56
(lp1221
g49
(g70
g51
NtRp1222
(dp1223
g54
(dp1224
g74
g75
ssg63
g1218
sg56
(lp1225
S'remote_addr'
p1226
asbag49
(g70
g51
NtRp1227
(dp1228
g54
(dp1229
g81
g82
ssg63
g1218
sg56
(lp1230
S':'
asbag49
(g70
g51
NtRp1231
(dp1232
g54
(dp1233
sg63
g1218
sg56
(lp1234
g49
(g50
g51
NtRp1235
(dp1236
g54
(dp1237
g62
I4
ssg63
g1231
sg56
(lp1238
g182
asbasbasbag49
(g65
g51
NtRp1239
(dp1240
g54
(dp1241
sg63
g753
sg56
(lp1242
g49
(g70
g51
NtRp1243
(dp1244
g54
(dp1245
g74
g75
ssg63
g1239
sg56
(lp1246
S'remote_port'
p1247
asbag49
(g70
g51
NtRp1248
(dp1249
g54
(dp1250
g81
g82
ssg63
g1239
sg56
(lp1251
S':'
asbag49
(g70
g51
NtRp1252
(dp1253
g54
(dp1254
sg63
g1239
sg56
(lp1255
g49
(g50
g51
NtRp1256
(dp1257
g54
(dp1258
g62
I4
ssg63
g1252
sg56
(lp1259
S'50169'
p1260
asbasbasbag49
(g65
g51
NtRp1261
(dp1262
g54
(dp1263
sg63
g753
sg56
(lp1264
g49
(g70
g51
NtRp1265
(dp1266
g54
(dp1267
g74
g75
ssg63
g1261
sg56
(lp1268
S'request_method'
p1269
asbag49
(g70
g51
NtRp1270
(dp1271
g54
(dp1272
g81
g82
ssg63
g1261
sg56
(lp1273
S':'
asbag49
(g70
g51
NtRp1274
(dp1275
g54
(dp1276
sg63
g1261
sg56
(lp1277
g49
(g50
g51
NtRp1278
(dp1279
g54
(dp1280
g62
I4
ssg63
g1274
sg56
(lp1281
S'GET'
p1282
asbasbasbag49
(g65
g51
NtRp1283
(dp1284
g54
(dp1285
sg63
g753
sg56
(lp1286
g49
(g70
g51
NtRp1287
(dp1288
g54
(dp1289
g74
g75
ssg63
g1283
sg56
(lp1290
S'script_name'
p1291
asbag49
(g70
g51
NtRp1292
(dp1293
g54
(dp1294
g81
g82
ssg63
g1283
sg56
(lp1295
S':'
asbag49
(g70
g51
NtRp1296
(dp1297
g54
(dp1298
sg63
g1283
sg56
(lp1299
g49
(g50
g51
NtRp1300
(dp1301
g54
(dp1302
g62
I4
ssg63
g1296
sg56
(lp1303
S''
asbasbasbag49
(g65
g51
NtRp1304
(dp1305
g54
(dp1306
sg63
g753
sg56
(lp1307
g49
(g70
g51
NtRp1308
(dp1309
g54
(dp1310
g74
g75
ssg63
g1304
sg56
(lp1311
S'server_name'
p1312
asbag49
(g70
g51
NtRp1313
(dp1314
g54
(dp1315
g81
g82
ssg63
g1304
sg56
(lp1316
S':'
asbag49
(g70
g51
NtRp1317
(dp1318
g54
(dp1319
sg63
g1304
sg56
(lp1320
g49
(g50
g51
NtRp1321
(dp1322
g54
(dp1323
g62
I4
ssg63
g1317
sg56
(lp1324
S'NBHYDAVJAIN7'
p1325
asbasbasbag49
(g65
g51
NtRp1326
(dp1327
g54
(dp1328
sg63
g753
sg56
(lp1329
g49
(g70
g51
NtRp1330
(dp1331
g54
(dp1332
g74
g75
ssg63
g1326
sg56
(lp1333
S'server_port'
p1334
asbag49
(g70
g51
NtRp1335
(dp1336
g54
(dp1337
g81
g82
ssg63
g1326
sg56
(lp1338
S':'
asbag49
(g70
g51
NtRp1339
(dp1340
g54
(dp1341
sg63
g1326
sg56
(lp1342
g49
(g50
g51
NtRp1343
(dp1344
g54
(dp1345
g62
I4
ssg63
g1339
sg56
(lp1346
S'8000'
p1347
asbasbasbag49
(g65
g51
NtRp1348
(dp1349
g54
(dp1350
sg63
g753
sg56
(lp1351
g49
(g70
g51
NtRp1352
(dp1353
g54
(dp1354
g74
g75
ssg63
g1348
sg56
(lp1355
S'server_protocol'
p1356
asbag49
(g70
g51
NtRp1357
(dp1358
g54
(dp1359
g81
g82
ssg63
g1348
sg56
(lp1360
S':'
asbag49
(g70
g51
NtRp1361
(dp1362
g54
(dp1363
sg63
g1348
sg56
(lp1364
g49
(g50
g51
NtRp1365
(dp1366
g54
(dp1367
g62
I4
ssg63
g1361
sg56
(lp1368
S'HTTP/1.1'
p1369
asbasbasbag49
(g65
g51
NtRp1370
(dp1371
g54
(dp1372
sg63
g753
sg56
(lp1373
g49
(g70
g51
NtRp1374
(dp1375
g54
(dp1376
g74
g75
ssg63
g1370
sg56
(lp1377
S'server_software'
p1378
asbag49
(g70
g51
NtRp1379
(dp1380
g54
(dp1381
g81
g82
ssg63
g1370
sg56
(lp1382
S':'
asbag49
(g70
g51
NtRp1383
(dp1384
g54
(dp1385
sg63
g1370
sg56
(lp1386
g49
(g50
g51
NtRp1387
(dp1388
g54
(dp1389
g62
I4
ssg63
g1383
sg56
(lp1390
S'Rocket 1.2.4'
p1391
asbasbasbag49
(g65
g51
NtRp1392
(dp1393
g54
(dp1394
sg63
g753
sg56
(lp1395
g49
(g70
g51
NtRp1396
(dp1397
g54
(dp1398
g74
g75
ssg63
g1392
sg56
(lp1399
S'web2py_crontype'
p1400
asbag49
(g70
g51
NtRp1401
(dp1402
g54
(dp1403
g81
g82
ssg63
g1392
sg56
(lp1404
S':'
asbag49
(g70
g51
NtRp1405
(dp1406
g54
(dp1407
sg63
g1392
sg56
(lp1408
g49
(g50
g51
NtRp1409
(dp1410
g54
(dp1411
g62
I4
ssg63
g1405
sg56
(lp1412
S'hard'
p1413
asbasbasbag49
(g65
g51
NtRp1414
(dp1415
g54
(dp1416
sg63
g753
sg56
(lp1417
g49
(g70
g51
NtRp1418
(dp1419
g54
(dp1420
g74
g75
ssg63
g1414
sg56
(lp1421
S'web2py_path'
p1422
asbag49
(g70
g51
NtRp1423
(dp1424
g54
(dp1425
g81
g82
ssg63
g1414
sg56
(lp1426
S':'
asbag49
(g70
g51
NtRp1427
(dp1428
g54
(dp1429
sg63
g1414
sg56
(lp1430
g49
(g50
g51
NtRp1431
(dp1432
g54
(dp1433
g62
I4
ssg63
g1427
sg56
(lp1434
g800
asbasbasbag49
(g65
g51
NtRp1435
(dp1436
g54
(dp1437
sg63
g753
sg56
(lp1438
g49
(g70
g51
NtRp1439
(dp1440
g54
(dp1441
g74
g75
ssg63
g1435
sg56
(lp1442
S'web2py_version'
p1443
asbag49
(g70
g51
NtRp1444
(dp1445
g54
(dp1446
g81
g82
ssg63
g1435
sg56
(lp1447
S':'
asbag49
(g70
g51
NtRp1448
(dp1449
g54
(dp1450
sg63
g1435
sg56
(lp1451
g49
(g50
g51
NtRp1452
(dp1453
g54
(dp1454
g62
I4
ssg63
g1448
sg56
(lp1455
g49
(g58
g51
NtRp1456
(dp1457
g54
(dp1458
g62
I3
ssg63
Nsg56
(lp1459
g49
(g65
g51
NtRp1460
(dp1461
g54
(dp1462
sg63
g1456
sg56
(lp1463
g49
(g70
g51
NtRp1464
(dp1465
g54
(dp1466
sg63
g1460
sg56
(lp1467
g49
(g50
g51
NtRp1468
(dp1469
g54
(dp1470
g62
I3
ssg63
g1464
sg56
(lp1471
S'1'
asbasbasbag49
(g65
g51
NtRp1472
(dp1473
g54
(dp1474
sg63
g1456
sg56
(lp1475
g49
(g70
g51
NtRp1476
(dp1477
g54
(dp1478
sg63
g1472
sg56
(lp1479
g49
(g50
g51
NtRp1480
(dp1481
g54
(dp1482
g62
I3
ssg63
g1476
sg56
(lp1483
S'99'
p1484
asbasbasbag49
(g65
g51
NtRp1485
(dp1486
g54
(dp1487
sg63
g1456
sg56
(lp1488
g49
(g70
g51
NtRp1489
(dp1490
g54
(dp1491
sg63
g1485
sg56
(lp1492
g49
(g50
g51
NtRp1493
(dp1494
g54
(dp1495
g62
I3
ssg63
g1489
sg56
(lp1496
S'7'
asbasbasbag49
(g65
g51
NtRp1497
(dp1498
g54
(dp1499
sg63
g1456
sg56
(lp1500
g49
(g70
g51
NtRp1501
(dp1502
g54
(dp1503
sg63
g1497
sg56
(lp1504
g49
(g50
g51
NtRp1505
(dp1506
g54
(dp1507
g62
I3
ssg63
g1501
sg56
(lp1508
S'datetime.datetime(2012, 3, 4, 22, 12, 8)'
p1509
asbasbasbag49
(g65
g51
NtRp1510
(dp1511
g54
(dp1512
sg63
g1456
sg56
(lp1513
g49
(g70
g51
NtRp1514
(dp1515
g54
(dp1516
sg63
g1510
sg56
(lp1517
g49
(g50
g51
NtRp1518
(dp1519
g54
(dp1520
g62
I3
ssg63
g1514
sg56
(lp1521
S'stable'
p1522
asbasbasbasbasbasbasbag49
(g65
g51
NtRp1523
(dp1524
g54
(dp1525
sg63
g753
sg56
(lp1526
g49
(g70
g51
NtRp1527
(dp1528
g54
(dp1529
g74
g75
ssg63
g1523
sg56
(lp1530
S'wsgi_errors'
p1531
asbag49
(g70
g51
NtRp1532
(dp1533
g54
(dp1534
g81
g82
ssg63
g1523
sg56
(lp1535
S':'
asbag49
(g70
g51
NtRp1536
(dp1537
g54
(dp1538
sg63
g1523
sg56
(lp1539
g49
(g50
g51
NtRp1540
(dp1541
g54
(dp1542
g62
I4
ssg63
g1536
sg56
(lp1543
S"<open file '<stderr>', mode 'w' at 0x014700B0>"
p1544
asbasbasbag49
(g65
g51
NtRp1545
(dp1546
g54
(dp1547
sg63
g753
sg56
(lp1548
g49
(g70
g51
NtRp1549
(dp1550
g54
(dp1551
g74
g75
ssg63
g1545
sg56
(lp1552
S'wsgi_file_wrapper'
p1553
asbag49
(g70
g51
NtRp1554
(dp1555
g54
(dp1556
g81
g82
ssg63
g1545
sg56
(lp1557
S':'
asbag49
(g70
g51
NtRp1558
(dp1559
g54
(dp1560
sg63
g1545
sg56
(lp1561
g49
(g50
g51
NtRp1562
(dp1563
g54
(dp1564
g62
I4
ssg63
g1558
sg56
(lp1565
S'<class wsgiref.util.FileWrapper at 0x024DC2D0>'
p1566
asbasbasbag49
(g65
g51
NtRp1567
(dp1568
g54
(dp1569
sg63
g753
sg56
(lp1570
g49
(g70
g51
NtRp1571
(dp1572
g54
(dp1573
g74
g75
ssg63
g1567
sg56
(lp1574
S'wsgi_input'
p1575
asbag49
(g70
g51
NtRp1576
(dp1577
g54
(dp1578
g81
g82
ssg63
g1567
sg56
(lp1579
S':'
asbag49
(g70
g51
NtRp1580
(dp1581
g54
(dp1582
sg63
g1567
sg56
(lp1583
g49
(g50
g51
NtRp1584
(dp1585
g54
(dp1586
g62
I4
ssg63
g1580
sg56
(lp1587
S'<socket._fileobject object at 0x05F0F230>'
p1588
asbasbasbag49
(g65
g51
NtRp1589
(dp1590
g54
(dp1591
sg63
g753
sg56
(lp1592
g49
(g70
g51
NtRp1593
(dp1594
g54
(dp1595
g74
g75
ssg63
g1589
sg56
(lp1596
S'wsgi_multiprocess'
p1597
asbag49
(g70
g51
NtRp1598
(dp1599
g54
(dp1600
g81
g82
ssg63
g1589
sg56
(lp1601
S':'
asbag49
(g70
g51
NtRp1602
(dp1603
g54
(dp1604
sg63
g1589
sg56
(lp1605
g49
(g50
g51
NtRp1606
(dp1607
g54
(dp1608
g62
I4
ssg63
g1602
sg56
(lp1609
g92
asbasbasbag49
(g65
g51
NtRp1610
(dp1611
g54
(dp1612
sg63
g753
sg56
(lp1613
g49
(g70
g51
NtRp1614
(dp1615
g54
(dp1616
g74
g75
ssg63
g1610
sg56
(lp1617
S'wsgi_multithread'
p1618
asbag49
(g70
g51
NtRp1619
(dp1620
g54
(dp1621
g81
g82
ssg63
g1610
sg56
(lp1622
S':'
asbag49
(g70
g51
NtRp1623
(dp1624
g54
(dp1625
sg63
g1610
sg56
(lp1626
g49
(g50
g51
NtRp1627
(dp1628
g54
(dp1629
g62
I4
ssg63
g1623
sg56
(lp1630
S'True'
p1631
asbasbasbag49
(g65
g51
NtRp1632
(dp1633
g54
(dp1634
sg63
g753
sg56
(lp1635
g49
(g70
g51
NtRp1636
(dp1637
g54
(dp1638
g74
g75
ssg63
g1632
sg56
(lp1639
S'wsgi_run_once'
p1640
asbag49
(g70
g51
NtRp1641
(dp1642
g54
(dp1643
g81
g82
ssg63
g1632
sg56
(lp1644
S':'
asbag49
(g70
g51
NtRp1645
(dp1646
g54
(dp1647
sg63
g1632
sg56
(lp1648
g49
(g50
g51
NtRp1649
(dp1650
g54
(dp1651
g62
I4
ssg63
g1645
sg56
(lp1652
g92
asbasbasbag49
(g65
g51
NtRp1653
(dp1654
g54
(dp1655
sg63
g753
sg56
(lp1656
g49
(g70
g51
NtRp1657
(dp1658
g54
(dp1659
g74
g75
ssg63
g1653
sg56
(lp1660
S'wsgi_url_scheme'
p1661
asbag49
(g70
g51
NtRp1662
(dp1663
g54
(dp1664
g81
g82
ssg63
g1653
sg56
(lp1665
S':'
asbag49
(g70
g51
NtRp1666
(dp1667
g54
(dp1668
sg63
g1653
sg56
(lp1669
g49
(g50
g51
NtRp1670
(dp1671
g54
(dp1672
g62
I4
ssg63
g1666
sg56
(lp1673
S'http'
p1674
asbasbasbag49
(g65
g51
NtRp1675
(dp1676
g54
(dp1677
sg63
g753
sg56
(lp1678
g49
(g70
g51
NtRp1679
(dp1680
g54
(dp1681
g74
g75
ssg63
g1675
sg56
(lp1682
S'wsgi_version'
p1683
asbag49
(g70
g51
NtRp1684
(dp1685
g54
(dp1686
g81
g82
ssg63
g1675
sg56
(lp1687
S':'
asbag49
(g70
g51
NtRp1688
(dp1689
g54
(dp1690
sg63
g1675
sg56
(lp1691
g49
(g50
g51
NtRp1692
(dp1693
g54
(dp1694
g62
I4
ssg63
g1688
sg56
(lp1695
g49
(g58
g51
NtRp1696
(dp1697
g54
(dp1698
g62
I3
ssg63
Nsg56
(lp1699
g49
(g65
g51
NtRp1700
(dp1701
g54
(dp1702
sg63
g1696
sg56
(lp1703
g49
(g70
g51
NtRp1704
(dp1705
g54
(dp1706
sg63
g1700
sg56
(lp1707
g49
(g50
g51
NtRp1708
(dp1709
g54
(dp1710
g62
I3
ssg63
g1704
sg56
(lp1711
S'1'
asbasbasbag49
(g65
g51
NtRp1712
(dp1713
g54
(dp1714
sg63
g1696
sg56
(lp1715
g49
(g70
g51
NtRp1716
(dp1717
g54
(dp1718
sg63
g1712
sg56
(lp1719
g49
(g50
g51
NtRp1720
(dp1721
g54
(dp1722
g62
I3
ssg63
g1716
sg56
(lp1723
S'0'
asbasbasbasbasbasbasbasbasbasbasbag49
(g65
g51
NtRp1724
(dp1725
g54
(dp1726
sg63
g59
sg56
(lp1727
g49
(g70
g51
NtRp1728
(dp1729
g54
(dp1730
g74
g75
ssg63
g1724
sg56
(lp1731
S'extension'
p1732
asbag49
(g70
g51
NtRp1733
(dp1734
g54
(dp1735
g81
g82
ssg63
g1724
sg56
(lp1736
S':'
asbag49
(g70
g51
NtRp1737
(dp1738
g54
(dp1739
sg63
g1724
sg56
(lp1740
g49
(g50
g51
NtRp1741
(dp1742
g54
(dp1743
g62
I5
ssg63
g1737
sg56
(lp1744
S'html'
p1745
asbasbasbag49
(g65
g51
NtRp1746
(dp1747
g54
(dp1748
sg63
g59
sg56
(lp1749
g49
(g70
g51
NtRp1750
(dp1751
g54
(dp1752
g74
g75
ssg63
g1746
sg56
(lp1753
S'folder'
p1754
asbag49
(g70
g51
NtRp1755
(dp1756
g54
(dp1757
g81
g82
ssg63
g1746
sg56
(lp1758
S':'
asbag49
(g70
g51
NtRp1759
(dp1760
g54
(dp1761
sg63
g1746
sg56
(lp1762
g49
(g50
g51
NtRp1763
(dp1764
g54
(dp1765
g62
I5
ssg63
g1759
sg56
(lp1766
S'C:\\Users\\avjain\\Downloads\\web2py\\applications\\Golf_2\\'
p1767
asbasbasbag49
(g65
g51
NtRp1768
(dp1769
g54
(dp1770
sg63
g59
sg56
(lp1771
g49
(g70
g51
NtRp1772
(dp1773
g54
(dp1774
g74
g75
ssg63
g1768
sg56
(lp1775
S'function'
p1776
asbag49
(g70
g51
NtRp1777
(dp1778
g54
(dp1779
g81
g82
ssg63
g1768
sg56
(lp1780
S':'
asbag49
(g70
g51
NtRp1781
(dp1782
g54
(dp1783
sg63
g1768
sg56
(lp1784
g49
(g50
g51
NtRp1785
(dp1786
g54
(dp1787
g62
I5
ssg63
g1781
sg56
(lp1788
S'settings'
p1789
asbasbasbag49
(g65
g51
NtRp1790
(dp1791
g54
(dp1792
sg63
g59
sg56
(lp1793
g49
(g70
g51
NtRp1794
(dp1795
g54
(dp1796
g74
g75
ssg63
g1790
sg56
(lp1797
S'get_vars'
p1798
asbag49
(g70
g51
NtRp1799
(dp1800
g54
(dp1801
g81
g82
ssg63
g1790
sg56
(lp1802
S':'
asbag49
(g70
g51
NtRp1803
(dp1804
g54
(dp1805
sg63
g1790
sg56
(lp1806
g49
(g50
g51
NtRp1807
(dp1808
g54
(dp1809
g62
I5
ssg63
g1803
sg56
(lp1810
g49
(g58
g51
NtRp1811
(dp1812
g54
(dp1813
g62
I4
ssg63
Nsg56
(lp1814
sbasbasbasbag49
(g65
g51
NtRp1815
(dp1816
g54
(dp1817
sg63
g59
sg56
(lp1818
g49
(g70
g51
NtRp1819
(dp1820
g54
(dp1821
g74
g75
ssg63
g1815
sg56
(lp1822
S'global_settings'
p1823
asbag49
(g70
g51
NtRp1824
(dp1825
g54
(dp1826
g81
g82
ssg63
g1815
sg56
(lp1827
S':'
asbag49
(g70
g51
NtRp1828
(dp1829
g54
(dp1830
sg63
g1815
sg56
(lp1831
g49
(g50
g51
NtRp1832
(dp1833
g54
(dp1834
g62
I5
ssg63
g1828
sg56
(lp1835
g49
(g58
g51
NtRp1836
(dp1837
g54
(dp1838
g62
I4
ssg63
Nsg56
(lp1839
g49
(g65
g51
NtRp1840
(dp1841
g54
(dp1842
sg63
g1836
sg56
(lp1843
g49
(g70
g51
NtRp1844
(dp1845
g54
(dp1846
g74
g75
ssg63
g1840
sg56
(lp1847
g765
asbag49
(g70
g51
NtRp1848
(dp1849
g54
(dp1850
g81
g82
ssg63
g1840
sg56
(lp1851
S':'
asbag49
(g70
g51
NtRp1852
(dp1853
g54
(dp1854
sg63
g1840
sg56
(lp1855
g49
(g50
g51
NtRp1856
(dp1857
g54
(dp1858
g62
I4
ssg63
g1852
sg56
(lp1859
S"set(['C:\\\\Users\\\\avjain\\\\Downloads\\\\web2py\\\\applications\\\\Golf_2\\\\', 'C:\\\\Users\\\\avjain\\\\Downloads\\\\web2py\\\\applications\\\\admin\\\\', 'C:\\\\Users\\\\avjain\\\\Downloads\\\\web2py\\\\applications\\\\welcome\\\\'])"
p1860
asbasbasbag49
(g65
g51
NtRp1861
(dp1862
g54
(dp1863
sg63
g1836
sg56
(lp1864
g49
(g70
g51
NtRp1865
(dp1866
g54
(dp1867
g74
g75
ssg63
g1861
sg56
(lp1868
g787
asbag49
(g70
g51
NtRp1869
(dp1870
g54
(dp1871
g81
g82
ssg63
g1861
sg56
(lp1872
S':'
asbag49
(g70
g51
NtRp1873
(dp1874
g54
(dp1875
sg63
g1861
sg56
(lp1876
g49
(g50
g51
NtRp1877
(dp1878
g54
(dp1879
g62
I4
ssg63
g1873
sg56
(lp1880
g800
asbasbasbag49
(g65
g51
NtRp1881
(dp1882
g54
(dp1883
sg63
g1836
sg56
(lp1884
g49
(g70
g51
NtRp1885
(dp1886
g54
(dp1887
g74
g75
ssg63
g1881
sg56
(lp1888
g809
asbag49
(g70
g51
NtRp1889
(dp1890
g54
(dp1891
g81
g82
ssg63
g1881
sg56
(lp1892
S':'
asbag49
(g70
g51
NtRp1893
(dp1894
g54
(dp1895
sg63
g1881
sg56
(lp1896
g49
(g50
g51
NtRp1897
(dp1898
g54
(dp1899
g62
I4
ssg63
g1893
sg56
(lp1900
g49
(g58
g51
NtRp1901
(dp1902
g54
(dp1903
g62
I3
ssg63
Nsg56
(lp1904
sbasbasbasbag49
(g65
g51
NtRp1905
(dp1906
g54
(dp1907
sg63
g1836
sg56
(lp1908
g49
(g70
g51
NtRp1909
(dp1910
g54
(dp1911
g74
g75
ssg63
g1905
sg56
(lp1912
g834
asbag49
(g70
g51
NtRp1913
(dp1914
g54
(dp1915
g81
g82
ssg63
g1905
sg56
(lp1916
S':'
asbag49
(g70
g51
NtRp1917
(dp1918
g54
(dp1919
sg63
g1905
sg56
(lp1920
g49
(g50
g51
NtRp1921
(dp1922
g54
(dp1923
g62
I4
ssg63
g1917
sg56
(lp1924
S"<Values at 0x2764f80: {'verbose': False, 'ip': '127.0.0.1', 'shutdown_timeout': 5, 'taskbar': False, 'nocron': False, 'pid_filename': 'httpserver.pid', 'maxthreads': None, 'softcron': False, 'server_name': 'NBHYDAVJAIN7', 'bpython': False, 'nogui': False, 'port': 8000, 'extcron': False, 'debuglevel': 30, 'test': None, 'folder': 'C:\\\\Users\\\\avjain\\\\Downloads\\\\web2py', 'config': '', 'import_models': False, 'winservice': '', 'shell': None, 'run': '', 'log_filename': 'httpserver.log', 'args': [''], 'socket_timeout': 5, 'ssl_ca_certificate': None, 'scheduler': None, 'profiler_filename': None, 'ssl_private_key': '', 'password': '<ask>', 'request_queue_size': 5, 'ssl_certificate': '', 'cronjob': False, 'numthreads': None, 'quiet': False, 'interfaces': None, 'minthreads': None, 'timeout': 10, 'plain': False, 'nobanner': False}>"
p1925
asbasbasbag49
(g65
g51
NtRp1926
(dp1927
g54
(dp1928
sg63
g1836
sg56
(lp1929
g49
(g70
g51
NtRp1930
(dp1931
g54
(dp1932
g74
g75
ssg63
g1926
sg56
(lp1933
g856
asbag49
(g70
g51
NtRp1934
(dp1935
g54
(dp1936
g81
g82
ssg63
g1926
sg56
(lp1937
S':'
asbag49
(g70
g51
NtRp1938
(dp1939
g54
(dp1940
sg63
g1926
sg56
(lp1941
g49
(g50
g51
NtRp1942
(dp1943
g54
(dp1944
g62
I4
ssg63
g1938
sg56
(lp1945
S'set([])'
p1946
asbasbasbag49
(g65
g51
NtRp1947
(dp1948
g54
(dp1949
sg63
g1836
sg56
(lp1950
g49
(g70
g51
NtRp1951
(dp1952
g54
(dp1953
g74
g75
ssg63
g1947
sg56
(lp1954
g878
asbag49
(g70
g51
NtRp1955
(dp1956
g54
(dp1957
g81
g82
ssg63
g1947
sg56
(lp1958
S':'
asbag49
(g70
g51
NtRp1959
(dp1960
g54
(dp1961
sg63
g1947
sg56
(lp1962
g49
(g50
g51
NtRp1963
(dp1964
g54
(dp1965
g62
I4
ssg63
g1959
sg56
(lp1966
g92
asbasbasbag49
(g65
g51
NtRp1967
(dp1968
g54
(dp1969
sg63
g1836
sg56
(lp1970
g49
(g70
g51
NtRp1971
(dp1972
g54
(dp1973
g74
g75
ssg63
g1967
sg56
(lp1974
g899
asbag49
(g70
g51
NtRp1975
(dp1976
g54
(dp1977
g81
g82
ssg63
g1967
sg56
(lp1978
S':'
asbag49
(g70
g51
NtRp1979
(dp1980
g54
(dp1981
sg63
g1967
sg56
(lp1982
g49
(g50
g51
NtRp1983
(dp1984
g54
(dp1985
g62
I4
ssg63
g1979
sg56
(lp1986
g912
asbasbasbag49
(g65
g51
NtRp1987
(dp1988
g54
(dp1989
sg63
g1836
sg56
(lp1990
g49
(g70
g51
NtRp1991
(dp1992
g54
(dp1993
g74
g75
ssg63
g1987
sg56
(lp1994
g1141
asbag49
(g70
g51
NtRp1995
(dp1996
g54
(dp1997
g81
g82
ssg63
g1987
sg56
(lp1998
S':'
asbag49
(g70
g51
NtRp1999
(dp2000
g54
(dp2001
sg63
g1987
sg56
(lp2002
g49
(g50
g51
NtRp2003
(dp2004
g54
(dp2005
g62
I4
ssg63
g1999
sg56
(lp2006
g92
asbasbasbag49
(g65
g51
NtRp2007
(dp2008
g54
(dp2009
sg63
g1836
sg56
(lp2010
g49
(g70
g51
NtRp2011
(dp2012
g54
(dp2013
g74
g75
ssg63
g2007
sg56
(lp2014
g1162
asbag49
(g70
g51
NtRp2015
(dp2016
g54
(dp2017
g81
g82
ssg63
g2007
sg56
(lp2018
S':'
asbag49
(g70
g51
NtRp2019
(dp2020
g54
(dp2021
sg63
g2007
sg56
(lp2022
g49
(g50
g51
NtRp2023
(dp2024
g54
(dp2025
g62
I4
ssg63
g2019
sg56
(lp2026
g92
asbasbasbag49
(g65
g51
NtRp2027
(dp2028
g54
(dp2029
sg63
g1836
sg56
(lp2030
g49
(g70
g51
NtRp2031
(dp2032
g54
(dp2033
g74
g75
ssg63
g2027
sg56
(lp2034
g1400
asbag49
(g70
g51
NtRp2035
(dp2036
g54
(dp2037
g81
g82
ssg63
g2027
sg56
(lp2038
S':'
asbag49
(g70
g51
NtRp2039
(dp2040
g54
(dp2041
sg63
g2027
sg56
(lp2042
g49
(g50
g51
NtRp2043
(dp2044
g54
(dp2045
g62
I4
ssg63
g2039
sg56
(lp2046
g1413
asbasbasbag49
(g65
g51
NtRp2047
(dp2048
g54
(dp2049
sg63
g1836
sg56
(lp2050
g49
(g70
g51
NtRp2051
(dp2052
g54
(dp2053
g74
g75
ssg63
g2047
sg56
(lp2054
g1443
asbag49
(g70
g51
NtRp2055
(dp2056
g54
(dp2057
g81
g82
ssg63
g2047
sg56
(lp2058
S':'
asbag49
(g70
g51
NtRp2059
(dp2060
g54
(dp2061
sg63
g2047
sg56
(lp2062
g49
(g50
g51
NtRp2063
(dp2064
g54
(dp2065
g62
I4
ssg63
g2059
sg56
(lp2066
g49
(g58
g51
NtRp2067
(dp2068
g54
(dp2069
g62
I3
ssg63
Nsg56
(lp2070
g49
(g65
g51
NtRp2071
(dp2072
g54
(dp2073
sg63
g2067
sg56
(lp2074
g49
(g70
g51
NtRp2075
(dp2076
g54
(dp2077
sg63
g2071
sg56
(lp2078
g49
(g50
g51
NtRp2079
(dp2080
g54
(dp2081
g62
I3
ssg63
g2075
sg56
(lp2082
S'1'
asbasbasbag49
(g65
g51
NtRp2083
(dp2084
g54
(dp2085
sg63
g2067
sg56
(lp2086
g49
(g70
g51
NtRp2087
(dp2088
g54
(dp2089
sg63
g2083
sg56
(lp2090
g49
(g50
g51
NtRp2091
(dp2092
g54
(dp2093
g62
I3
ssg63
g2087
sg56
(lp2094
S'99'
p2095
asbasbasbag49
(g65
g51
NtRp2096
(dp2097
g54
(dp2098
sg63
g2067
sg56
(lp2099
g49
(g70
g51
NtRp2100
(dp2101
g54
(dp2102
sg63
g2096
sg56
(lp2103
g49
(g50
g51
NtRp2104
(dp2105
g54
(dp2106
g62
I3
ssg63
g2100
sg56
(lp2107
S'7'
asbasbasbag49
(g65
g51
NtRp2108
(dp2109
g54
(dp2110
sg63
g2067
sg56
(lp2111
g49
(g70
g51
NtRp2112
(dp2113
g54
(dp2114
sg63
g2108
sg56
(lp2115
g49
(g50
g51
NtRp2116
(dp2117
g54
(dp2118
g62
I3
ssg63
g2112
sg56
(lp2119
S'datetime.datetime(2012, 3, 4, 22, 12, 8)'
p2120
asbasbasbag49
(g65
g51
NtRp2121
(dp2122
g54
(dp2123
sg63
g2067
sg56
(lp2124
g49
(g70
g51
NtRp2125
(dp2126
g54
(dp2127
sg63
g2121
sg56
(lp2128
g49
(g50
g51
NtRp2129
(dp2130
g54
(dp2131
g62
I3
ssg63
g2125
sg56
(lp2132
g1522
asbasbasbasbasbasbasbasbasbasbasbag49
(g65
g51
NtRp2133
(dp2134
g54
(dp2135
sg63
g59
sg56
(lp2136
g49
(g70
g51
NtRp2137
(dp2138
g54
(dp2139
g74
g75
ssg63
g2133
sg56
(lp2140
S'is_https'
p2141
asbag49
(g70
g51
NtRp2142
(dp2143
g54
(dp2144
g81
g82
ssg63
g2133
sg56
(lp2145
S':'
asbag49
(g70
g51
NtRp2146
(dp2147
g54
(dp2148
sg63
g2133
sg56
(lp2149
g49
(g50
g51
NtRp2150
(dp2151
g54
(dp2152
g62
I5
ssg63
g2146
sg56
(lp2153
g92
asbasbasbag49
(g65
g51
NtRp2154
(dp2155
g54
(dp2156
sg63
g59
sg56
(lp2157
g49
(g70
g51
NtRp2158
(dp2159
g54
(dp2160
g74
g75
ssg63
g2154
sg56
(lp2161
S'is_local'
p2162
asbag49
(g70
g51
NtRp2163
(dp2164
g54
(dp2165
g81
g82
ssg63
g2154
sg56
(lp2166
S':'
asbag49
(g70
g51
NtRp2167
(dp2168
g54
(dp2169
sg63
g2154
sg56
(lp2170
g49
(g50
g51
NtRp2171
(dp2172
g54
(dp2173
g62
I5
ssg63
g2167
sg56
(lp2174
g1631
asbasbasbag49
(g65
g51
NtRp2175
(dp2176
g54
(dp2177
sg63
g59
sg56
(lp2178
g49
(g70
g51
NtRp2179
(dp2180
g54
(dp2181
g74
g75
ssg63
g2175
sg56
(lp2182
S'is_restful'
p2183
asbag49
(g70
g51
NtRp2184
(dp2185
g54
(dp2186
g81
g82
ssg63
g2175
sg56
(lp2187
S':'
asbag49
(g70
g51
NtRp2188
(dp2189
g54
(dp2190
sg63
g2175
sg56
(lp2191
g49
(g50
g51
NtRp2192
(dp2193
g54
(dp2194
g62
I5
ssg63
g2188
sg56
(lp2195
g92
asbasbasbag49
(g65
g51
NtRp2196
(dp2197
g54
(dp2198
sg63
g59
sg56
(lp2199
g49
(g70
g51
NtRp2200
(dp2201
g54
(dp2202
g74
g75
ssg63
g2196
sg56
(lp2203
S'now'
p2204
asbag49
(g70
g51
NtRp2205
(dp2206
g54
(dp2207
g81
g82
ssg63
g2196
sg56
(lp2208
S':'
asbag49
(g70
g51
NtRp2209
(dp2210
g54
(dp2211
sg63
g2196
sg56
(lp2212
g49
(g50
g51
NtRp2213
(dp2214
g54
(dp2215
g62
I5
ssg63
g2209
sg56
(lp2216
S'datetime.datetime(2012, 7, 13, 11, 51, 27, 489000)'
p2217
asbasbasbag49
(g65
g51
NtRp2218
(dp2219
g54
(dp2220
sg63
g59
sg56
(lp2221
g49
(g70
g51
NtRp2222
(dp2223
g54
(dp2224
g74
g75
ssg63
g2218
sg56
(lp2225
S'post_vars'
p2226
asbag49
(g70
g51
NtRp2227
(dp2228
g54
(dp2229
g81
g82
ssg63
g2218
sg56
(lp2230
S':'
asbag49
(g70
g51
NtRp2231
(dp2232
g54
(dp2233
sg63
g2218
sg56
(lp2234
g49
(g50
g51
NtRp2235
(dp2236
g54
(dp2237
g62
I5
ssg63
g2231
sg56
(lp2238
g49
(g58
g51
NtRp2239
(dp2240
g54
(dp2241
g62
I4
ssg63
Nsg56
(lp2242
sbasbasbasbag49
(g65
g51
NtRp2243
(dp2244
g54
(dp2245
sg63
g59
sg56
(lp2246
g49
(g70
g51
NtRp2247
(dp2248
g54
(dp2249
g74
g75
ssg63
g2243
sg56
(lp2250
S'raw_extension'
p2251
asbag49
(g70
g51
NtRp2252
(dp2253
g54
(dp2254
g81
g82
ssg63
g2243
sg56
(lp2255
S':'
asbag49
(g70
g51
NtRp2256
(dp2257
g54
(dp2258
sg63
g2243
sg56
(lp2259
g49
(g50
g51
NtRp2260
(dp2261
g54
(dp2262
g62
I5
ssg63
g2256
sg56
(lp2263
g1745
asbasbasbag49
(g65
g51
NtRp2264
(dp2265
g54
(dp2266
sg63
g59
sg56
(lp2267
g49
(g70
g51
NtRp2268
(dp2269
g54
(dp2270
g74
g75
ssg63
g2264
sg56
(lp2271
S'url'
p2272
asbag49
(g70
g51
NtRp2273
(dp2274
g54
(dp2275
g81
g82
ssg63
g2264
sg56
(lp2276
S':'
asbag49
(g70
g51
NtRp2277
(dp2278
g54
(dp2279
sg63
g2264
sg56
(lp2280
g49
(g50
g51
NtRp2281
(dp2282
g54
(dp2283
g62
I5
ssg63
g2277
sg56
(lp2284
S'/Golf_2/default/settings.html'
p2285
asbasbasbag49
(g65
g51
NtRp2286
(dp2287
g54
(dp2288
sg63
g59
sg56
(lp2289
g49
(g70
g51
NtRp2290
(dp2291
g54
(dp2292
g74
g75
ssg63
g2286
sg56
(lp2293
S'utcnow'
p2294
asbag49
(g70
g51
NtRp2295
(dp2296
g54
(dp2297
g81
g82
ssg63
g2286
sg56
(lp2298
S':'
asbag49
(g70
g51
NtRp2299
(dp2300
g54
(dp2301
sg63
g2286
sg56
(lp2302
g49
(g50
g51
NtRp2303
(dp2304
g54
(dp2305
g62
I5
ssg63
g2299
sg56
(lp2306
S'datetime.datetime(2012, 7, 13, 6, 21, 27, 489000)'
p2307
asbasbasbag49
(g65
g51
NtRp2308
(dp2309
g54
(dp2310
sg63
g59
sg56
(lp2311
g49
(g70
g51
NtRp2312
(dp2313
g54
(dp2314
g74
g75
ssg63
g2308
sg56
(lp2315
S'uuid'
p2316
asbag49
(g70
g51
NtRp2317
(dp2318
g54
(dp2319
g81
g82
ssg63
g2308
sg56
(lp2320
S':'
asbag49
(g70
g51
NtRp2321
(dp2322
g54
(dp2323
sg63
g2308
sg56
(lp2324
g49
(g50
g51
NtRp2325
(dp2326
g54
(dp2327
g62
I5
ssg63
g2321
sg56
(lp2328
S'Golf_2/127.0.0.1.2012-07-13.11-51-27.d5b3dfb3-a77a-4794-8e91-e0e7f8854740'
p2329
asbasbasbag49
(g65
g51
NtRp2330
(dp2331
g54
(dp2332
sg63
g59
sg56
(lp2333
g49
(g70
g51
NtRp2334
(dp2335
g54
(dp2336
g74
g75
ssg63
g2330
sg56
(lp2337
S'vars'
p2338
asbag49
(g70
g51
NtRp2339
(dp2340
g54
(dp2341
g81
g82
ssg63
g2330
sg56
(lp2342
S':'
asbag49
(g70
g51
NtRp2343
(dp2344
g54
(dp2345
sg63
g2330
sg56
(lp2346
g49
(g50
g51
NtRp2347
(dp2348
g54
(dp2349
g62
I5
ssg63
g2343
sg56
(lp2350
g49
(g58
g51
NtRp2351
(dp2352
g54
(dp2353
g62
I4
ssg63
Nsg56
(lp2354
sbasbasbasbag49
(g65
g51
NtRp2355
(dp2356
g54
(dp2357
sg63
g59
sg56
(lp2358
g49
(g70
g51
NtRp2359
(dp2360
g54
(dp2361
g74
g75
ssg63
g2355
sg56
(lp2362
S'wsgi'
p2363
asbag49
(g70
g51
NtRp2364
(dp2365
g54
(dp2366
g81
g82
ssg63
g2355
sg56
(lp2367
S':'
asbag49
(g70
g51
NtRp2368
(dp2369
g54
(dp2370
sg63
g2355
sg56
(lp2371
g49
(g50
g51
NtRp2372
(dp2373
g54
(dp2374
g62
I5
ssg63
g2368
sg56
(lp2375
g49
(g58
g51
NtRp2376
(dp2377
g54
(dp2378
g62
I4
ssg63
Nsg56
(lp2379
g49
(g65
g51
NtRp2380
(dp2381
g54
(dp2382
sg63
g2376
sg56
(lp2383
g49
(g70
g51
NtRp2384
(dp2385
g54
(dp2386
g74
g75
ssg63
g2380
sg56
(lp2387
S'environ'
p2388
asbag49
(g70
g51
NtRp2389
(dp2390
g54
(dp2391
g81
g82
ssg63
g2380
sg56
(lp2392
S':'
asbag49
(g70
g51
NtRp2393
(dp2394
g54
(dp2395
sg63
g2380
sg56
(lp2396
g49
(g50
g51
NtRp2397
(dp2398
g54
(dp2399
g62
I4
ssg63
g2393
sg56
(lp2400
g49
(g58
g51
NtRp2401
(dp2402
g54
(dp2403
g62
I3
ssg63
Nsg56
(lp2404
g49
(g65
g51
NtRp2405
(dp2406
g54
(dp2407
sg63
g2401
sg56
(lp2408
g49
(g70
g51
NtRp2409
(dp2410
g54
(dp2411
g74
g75
ssg63
g2405
sg56
(lp2412
S'HTTP_ACCEPT'
p2413
asbag49
(g70
g51
NtRp2414
(dp2415
g54
(dp2416
g81
g82
ssg63
g2405
sg56
(lp2417
S':'
asbag49
(g70
g51
NtRp2418
(dp2419
g54
(dp2420
sg63
g2405
sg56
(lp2421
g49
(g50
g51
NtRp2422
(dp2423
g54
(dp2424
g62
I3
ssg63
g2418
sg56
(lp2425
g934
asbasbasbag49
(g65
g51
NtRp2426
(dp2427
g54
(dp2428
sg63
g2401
sg56
(lp2429
g49
(g70
g51
NtRp2430
(dp2431
g54
(dp2432
g74
g75
ssg63
g2426
sg56
(lp2433
S'HTTP_ACCEPT_CHARSET'
p2434
asbag49
(g70
g51
NtRp2435
(dp2436
g54
(dp2437
g81
g82
ssg63
g2426
sg56
(lp2438
S':'
asbag49
(g70
g51
NtRp2439
(dp2440
g54
(dp2441
sg63
g2426
sg56
(lp2442
g49
(g50
g51
NtRp2443
(dp2444
g54
(dp2445
g62
I3
ssg63
g2439
sg56
(lp2446
g956
asbasbasbag49
(g65
g51
NtRp2447
(dp2448
g54
(dp2449
sg63
g2401
sg56
(lp2450
g49
(g70
g51
NtRp2451
(dp2452
g54
(dp2453
g74
g75
ssg63
g2447
sg56
(lp2454
S'HTTP_ACCEPT_ENCODING'
p2455
asbag49
(g70
g51
NtRp2456
(dp2457
g54
(dp2458
g81
g82
ssg63
g2447
sg56
(lp2459
S':'
asbag49
(g70
g51
NtRp2460
(dp2461
g54
(dp2462
sg63
g2447
sg56
(lp2463
g49
(g50
g51
NtRp2464
(dp2465
g54
(dp2466
g62
I3
ssg63
g2460
sg56
(lp2467
g978
asbasbasbag49
(g65
g51
NtRp2468
(dp2469
g54
(dp2470
sg63
g2401
sg56
(lp2471
g49
(g70
g51
NtRp2472
(dp2473
g54
(dp2474
g74
g75
ssg63
g2468
sg56
(lp2475
S'HTTP_ACCEPT_LANGUAGE'
p2476
asbag49
(g70
g51
NtRp2477
(dp2478
g54
(dp2479
g81
g82
ssg63
g2468
sg56
(lp2480
S':'
asbag49
(g70
g51
NtRp2481
(dp2482
g54
(dp2483
sg63
g2468
sg56
(lp2484
g49
(g50
g51
NtRp2485
(dp2486
g54
(dp2487
g62
I3
ssg63
g2481
sg56
(lp2488
g1000
asbasbasbag49
(g65
g51
NtRp2489
(dp2490
g54
(dp2491
sg63
g2401
sg56
(lp2492
g49
(g70
g51
NtRp2493
(dp2494
g54
(dp2495
g74
g75
ssg63
g2489
sg56
(lp2496
S'HTTP_CACHE_CONTROL'
p2497
asbag49
(g70
g51
NtRp2498
(dp2499
g54
(dp2500
g81
g82
ssg63
g2489
sg56
(lp2501
S':'
asbag49
(g70
g51
NtRp2502
(dp2503
g54
(dp2504
sg63
g2489
sg56
(lp2505
g49
(g50
g51
NtRp2506
(dp2507
g54
(dp2508
g62
I3
ssg63
g2502
sg56
(lp2509
g1022
asbasbasbag49
(g65
g51
NtRp2510
(dp2511
g54
(dp2512
sg63
g2401
sg56
(lp2513
g49
(g70
g51
NtRp2514
(dp2515
g54
(dp2516
g74
g75
ssg63
g2510
sg56
(lp2517
S'HTTP_CONNECTION'
p2518
asbag49
(g70
g51
NtRp2519
(dp2520
g54
(dp2521
g81
g82
ssg63
g2510
sg56
(lp2522
S':'
asbag49
(g70
g51
NtRp2523
(dp2524
g54
(dp2525
sg63
g2510
sg56
(lp2526
g49
(g50
g51
NtRp2527
(dp2528
g54
(dp2529
g62
I3
ssg63
g2523
sg56
(lp2530
g1044
asbasbasbag49
(g65
g51
NtRp2531
(dp2532
g54
(dp2533
sg63
g2401
sg56
(lp2534
g49
(g70
g51
NtRp2535
(dp2536
g54
(dp2537
g74
g75
ssg63
g2531
sg56
(lp2538
S'HTTP_COOKIE'
p2539
asbag49
(g70
g51
NtRp2540
(dp2541
g54
(dp2542
g81
g82
ssg63
g2531
sg56
(lp2543
S':'
asbag49
(g70
g51
NtRp2544
(dp2545
g54
(dp2546
sg63
g2531
sg56
(lp2547
g49
(g50
g51
NtRp2548
(dp2549
g54
(dp2550
g62
I3
ssg63
g2544
sg56
(lp2551
g1066
asbasbasbag49
(g65
g51
NtRp2552
(dp2553
g54
(dp2554
sg63
g2401
sg56
(lp2555
g49
(g70
g51
NtRp2556
(dp2557
g54
(dp2558
g74
g75
ssg63
g2552
sg56
(lp2559
S'HTTP_HOST'
p2560
asbag49
(g70
g51
NtRp2561
(dp2562
g54
(dp2563
g81
g82
ssg63
g2552
sg56
(lp2564
S':'
asbag49
(g70
g51
NtRp2565
(dp2566
g54
(dp2567
sg63
g2552
sg56
(lp2568
g49
(g50
g51
NtRp2569
(dp2570
g54
(dp2571
g62
I3
ssg63
g2565
sg56
(lp2572
g1088
asbasbasbag49
(g65
g51
NtRp2573
(dp2574
g54
(dp2575
sg63
g2401
sg56
(lp2576
g49
(g70
g51
NtRp2577
(dp2578
g54
(dp2579
g74
g75
ssg63
g2573
sg56
(lp2580
S'HTTP_REFERER'
p2581
asbag49
(g70
g51
NtRp2582
(dp2583
g54
(dp2584
g81
g82
ssg63
g2573
sg56
(lp2585
S':'
asbag49
(g70
g51
NtRp2586
(dp2587
g54
(dp2588
sg63
g2573
sg56
(lp2589
g49
(g50
g51
NtRp2590
(dp2591
g54
(dp2592
g62
I3
ssg63
g2586
sg56
(lp2593
g1110
asbasbasbag49
(g65
g51
NtRp2594
(dp2595
g54
(dp2596
sg63
g2401
sg56
(lp2597
g49
(g70
g51
NtRp2598
(dp2599
g54
(dp2600
g74
g75
ssg63
g2594
sg56
(lp2601
S'HTTP_USER_AGENT'
p2602
asbag49
(g70
g51
NtRp2603
(dp2604
g54
(dp2605
g81
g82
ssg63
g2594
sg56
(lp2606
S':'
asbag49
(g70
g51
NtRp2607
(dp2608
g54
(dp2609
sg63
g2594
sg56
(lp2610
g49
(g50
g51
NtRp2611
(dp2612
g54
(dp2613
g62
I3
ssg63
g2607
sg56
(lp2614
g1132
asbasbasbag49
(g65
g51
NtRp2615
(dp2616
g54
(dp2617
sg63
g2401
sg56
(lp2618
g49
(g70
g51
NtRp2619
(dp2620
g54
(dp2621
g74
g75
ssg63
g2615
sg56
(lp2622
S'PATH_INFO'
p2623
asbag49
(g70
g51
NtRp2624
(dp2625
g54
(dp2626
g81
g82
ssg63
g2615
sg56
(lp2627
S':'
asbag49
(g70
g51
NtRp2628
(dp2629
g54
(dp2630
sg63
g2615
sg56
(lp2631
g49
(g50
g51
NtRp2632
(dp2633
g54
(dp2634
g62
I3
ssg63
g2628
sg56
(lp2635
g1196
asbasbasbag49
(g65
g51
NtRp2636
(dp2637
g54
(dp2638
sg63
g2401
sg56
(lp2639
g49
(g70
g51
NtRp2640
(dp2641
g54
(dp2642
g74
g75
ssg63
g2636
sg56
(lp2643
S'QUERY_STRING'
p2644
asbag49
(g70
g51
NtRp2645
(dp2646
g54
(dp2647
g81
g82
ssg63
g2636
sg56
(lp2648
S':'
asbag49
(g70
g51
NtRp2649
(dp2650
g54
(dp2651
sg63
g2636
sg56
(lp2652
g49
(g50
g51
NtRp2653
(dp2654
g54
(dp2655
g62
I3
ssg63
g2649
sg56
(lp2656
S''
asbasbasbag49
(g65
g51
NtRp2657
(dp2658
g54
(dp2659
sg63
g2401
sg56
(lp2660
g49
(g70
g51
NtRp2661
(dp2662
g54
(dp2663
g74
g75
ssg63
g2657
sg56
(lp2664
S'REMOTE_ADDR'
p2665
asbag49
(g70
g51
NtRp2666
(dp2667
g54
(dp2668
g81
g82
ssg63
g2657
sg56
(lp2669
S':'
asbag49
(g70
g51
NtRp2670
(dp2671
g54
(dp2672
sg63
g2657
sg56
(lp2673
g49
(g50
g51
NtRp2674
(dp2675
g54
(dp2676
g62
I3
ssg63
g2670
sg56
(lp2677
g182
asbasbasbag49
(g65
g51
NtRp2678
(dp2679
g54
(dp2680
sg63
g2401
sg56
(lp2681
g49
(g70
g51
NtRp2682
(dp2683
g54
(dp2684
g74
g75
ssg63
g2678
sg56
(lp2685
S'REMOTE_PORT'
p2686
asbag49
(g70
g51
NtRp2687
(dp2688
g54
(dp2689
g81
g82
ssg63
g2678
sg56
(lp2690
S':'
asbag49
(g70
g51
NtRp2691
(dp2692
g54
(dp2693
sg63
g2678
sg56
(lp2694
g49
(g50
g51
NtRp2695
(dp2696
g54
(dp2697
g62
I3
ssg63
g2691
sg56
(lp2698
g1260
asbasbasbag49
(g65
g51
NtRp2699
(dp2700
g54
(dp2701
sg63
g2401
sg56
(lp2702
g49
(g70
g51
NtRp2703
(dp2704
g54
(dp2705
g74
g75
ssg63
g2699
sg56
(lp2706
S'REQUEST_METHOD'
p2707
asbag49
(g70
g51
NtRp2708
(dp2709
g54
(dp2710
g81
g82
ssg63
g2699
sg56
(lp2711
S':'
asbag49
(g70
g51
NtRp2712
(dp2713
g54
(dp2714
sg63
g2699
sg56
(lp2715
g49
(g50
g51
NtRp2716
(dp2717
g54
(dp2718
g62
I3
ssg63
g2712
sg56
(lp2719
g1282
asbasbasbag49
(g65
g51
NtRp2720
(dp2721
g54
(dp2722
sg63
g2401
sg56
(lp2723
g49
(g70
g51
NtRp2724
(dp2725
g54
(dp2726
g74
g75
ssg63
g2720
sg56
(lp2727
S'SCRIPT_NAME'
p2728
asbag49
(g70
g51
NtRp2729
(dp2730
g54
(dp2731
g81
g82
ssg63
g2720
sg56
(lp2732
S':'
asbag49
(g70
g51
NtRp2733
(dp2734
g54
(dp2735
sg63
g2720
sg56
(lp2736
g49
(g50
g51
NtRp2737
(dp2738
g54
(dp2739
g62
I3
ssg63
g2733
sg56
(lp2740
S''
asbasbasbag49
(g65
g51
NtRp2741
(dp2742
g54
(dp2743
sg63
g2401
sg56
(lp2744
g49
(g70
g51
NtRp2745
(dp2746
g54
(dp2747
g74
g75
ssg63
g2741
sg56
(lp2748
S'SERVER_NAME'
p2749
asbag49
(g70
g51
NtRp2750
(dp2751
g54
(dp2752
g81
g82
ssg63
g2741
sg56
(lp2753
S':'
asbag49
(g70
g51
NtRp2754
(dp2755
g54
(dp2756
sg63
g2741
sg56
(lp2757
g49
(g50
g51
NtRp2758
(dp2759
g54
(dp2760
g62
I3
ssg63
g2754
sg56
(lp2761
g1325
asbasbasbag49
(g65
g51
NtRp2762
(dp2763
g54
(dp2764
sg63
g2401
sg56
(lp2765
g49
(g70
g51
NtRp2766
(dp2767
g54
(dp2768
g74
g75
ssg63
g2762
sg56
(lp2769
S'SERVER_PORT'
p2770
asbag49
(g70
g51
NtRp2771
(dp2772
g54
(dp2773
g81
g82
ssg63
g2762
sg56
(lp2774
S':'
asbag49
(g70
g51
NtRp2775
(dp2776
g54
(dp2777
sg63
g2762
sg56
(lp2778
g49
(g50
g51
NtRp2779
(dp2780
g54
(dp2781
g62
I3
ssg63
g2775
sg56
(lp2782
g1347
asbasbasbag49
(g65
g51
NtRp2783
(dp2784
g54
(dp2785
sg63
g2401
sg56
(lp2786
g49
(g70
g51
NtRp2787
(dp2788
g54
(dp2789
g74
g75
ssg63
g2783
sg56
(lp2790
S'SERVER_PROTOCOL'
p2791
asbag49
(g70
g51
NtRp2792
(dp2793
g54
(dp2794
g81
g82
ssg63
g2783
sg56
(lp2795
S':'
asbag49
(g70
g51
NtRp2796
(dp2797
g54
(dp2798
sg63
g2783
sg56
(lp2799
g49
(g50
g51
NtRp2800
(dp2801
g54
(dp2802
g62
I3
ssg63
g2796
sg56
(lp2803
g1369
asbasbasbag49
(g65
g51
NtRp2804
(dp2805
g54
(dp2806
sg63
g2401
sg56
(lp2807
g49
(g70
g51
NtRp2808
(dp2809
g54
(dp2810
g74
g75
ssg63
g2804
sg56
(lp2811
S'SERVER_SOFTWARE'
p2812
asbag49
(g70
g51
NtRp2813
(dp2814
g54
(dp2815
g81
g82
ssg63
g2804
sg56
(lp2816
S':'
asbag49
(g70
g51
NtRp2817
(dp2818
g54
(dp2819
sg63
g2804
sg56
(lp2820
g49
(g50
g51
NtRp2821
(dp2822
g54
(dp2823
g62
I3
ssg63
g2817
sg56
(lp2824
g1391
asbasbasbag49
(g65
g51
NtRp2825
(dp2826
g54
(dp2827
sg63
g2401
sg56
(lp2828
g49
(g70
g51
NtRp2829
(dp2830
g54
(dp2831
g74
g75
ssg63
g2825
sg56
(lp2832
S'wsgi.errors'
p2833
asbag49
(g70
g51
NtRp2834
(dp2835
g54
(dp2836
g81
g82
ssg63
g2825
sg56
(lp2837
S':'
asbag49
(g70
g51
NtRp2838
(dp2839
g54
(dp2840
sg63
g2825
sg56
(lp2841
g49
(g50
g51
NtRp2842
(dp2843
g54
(dp2844
g62
I3
ssg63
g2838
sg56
(lp2845
S"<open file '<stderr>', mode 'w' at 0x014700B0>"
p2846
asbasbasbag49
(g65
g51
NtRp2847
(dp2848
g54
(dp2849
sg63
g2401
sg56
(lp2850
g49
(g70
g51
NtRp2851
(dp2852
g54
(dp2853
g74
g75
ssg63
g2847
sg56
(lp2854
S'wsgi.file_wrapper'
p2855
asbag49
(g70
g51
NtRp2856
(dp2857
g54
(dp2858
g81
g82
ssg63
g2847
sg56
(lp2859
S':'
asbag49
(g70
g51
NtRp2860
(dp2861
g54
(dp2862
sg63
g2847
sg56
(lp2863
g49
(g50
g51
NtRp2864
(dp2865
g54
(dp2866
g62
I3
ssg63
g2860
sg56
(lp2867
S'<class wsgiref.util.FileWrapper at 0x024DC2D0>'
p2868
asbasbasbag49
(g65
g51
NtRp2869
(dp2870
g54
(dp2871
sg63
g2401
sg56
(lp2872
g49
(g70
g51
NtRp2873
(dp2874
g54
(dp2875
g74
g75
ssg63
g2869
sg56
(lp2876
S'wsgi.input'
p2877
asbag49
(g70
g51
NtRp2878
(dp2879
g54
(dp2880
g81
g82
ssg63
g2869
sg56
(lp2881
S':'
asbag49
(g70
g51
NtRp2882
(dp2883
g54
(dp2884
sg63
g2869
sg56
(lp2885
g49
(g50
g51
NtRp2886
(dp2887
g54
(dp2888
g62
I3
ssg63
g2882
sg56
(lp2889
S'<cStringIO.StringO object at 0x05D9B380>'
p2890
asbasbasbag49
(g65
g51
NtRp2891
(dp2892
g54
(dp2893
sg63
g2401
sg56
(lp2894
g49
(g70
g51
NtRp2895
(dp2896
g54
(dp2897
g74
g75
ssg63
g2891
sg56
(lp2898
S'wsgi.multiprocess'
p2899
asbag49
(g70
g51
NtRp2900
(dp2901
g54
(dp2902
g81
g82
ssg63
g2891
sg56
(lp2903
S':'
asbag49
(g70
g51
NtRp2904
(dp2905
g54
(dp2906
sg63
g2891
sg56
(lp2907
g49
(g50
g51
NtRp2908
(dp2909
g54
(dp2910
g62
I3
ssg63
g2904
sg56
(lp2911
g92
asbasbasbag49
(g65
g51
NtRp2912
(dp2913
g54
(dp2914
sg63
g2401
sg56
(lp2915
g49
(g70
g51
NtRp2916
(dp2917
g54
(dp2918
g74
g75
ssg63
g2912
sg56
(lp2919
S'wsgi.multithread'
p2920
asbag49
(g70
g51
NtRp2921
(dp2922
g54
(dp2923
g81
g82
ssg63
g2912
sg56
(lp2924
S':'
asbag49
(g70
g51
NtRp2925
(dp2926
g54
(dp2927
sg63
g2912
sg56
(lp2928
g49
(g50
g51
NtRp2929
(dp2930
g54
(dp2931
g62
I3
ssg63
g2925
sg56
(lp2932
g1631
asbasbasbag49
(g65
g51
NtRp2933
(dp2934
g54
(dp2935
sg63
g2401
sg56
(lp2936
g49
(g70
g51
NtRp2937
(dp2938
g54
(dp2939
g74
g75
ssg63
g2933
sg56
(lp2940
S'wsgi.run_once'
p2941
asbag49
(g70
g51
NtRp2942
(dp2943
g54
(dp2944
g81
g82
ssg63
g2933
sg56
(lp2945
S':'
asbag49
(g70
g51
NtRp2946
(dp2947
g54
(dp2948
sg63
g2933
sg56
(lp2949
g49
(g50
g51
NtRp2950
(dp2951
g54
(dp2952
g62
I3
ssg63
g2946
sg56
(lp2953
g92
asbasbasbag49
(g65
g51
NtRp2954
(dp2955
g54
(dp2956
sg63
g2401
sg56
(lp2957
g49
(g70
g51
NtRp2958
(dp2959
g54
(dp2960
g74
g75
ssg63
g2954
sg56
(lp2961
S'wsgi.url_scheme'
p2962
asbag49
(g70
g51
NtRp2963
(dp2964
g54
(dp2965
g81
g82
ssg63
g2954
sg56
(lp2966
S':'
asbag49
(g70
g51
NtRp2967
(dp2968
g54
(dp2969
sg63
g2954
sg56
(lp2970
g49
(g50
g51
NtRp2971
(dp2972
g54
(dp2973
g62
I3
ssg63
g2967
sg56
(lp2974
g1674
asbasbasbag49
(g65
g51
NtRp2975
(dp2976
g54
(dp2977
sg63
g2401
sg56
(lp2978
g49
(g70
g51
NtRp2979
(dp2980
g54
(dp2981
g74
g75
ssg63
g2975
sg56
(lp2982
S'wsgi.version'
p2983
asbag49
(g70
g51
NtRp2984
(dp2985
g54
(dp2986
g81
g82
ssg63
g2975
sg56
(lp2987
S':'
asbag49
(g70
g51
NtRp2988
(dp2989
g54
(dp2990
sg63
g2975
sg56
(lp2991
g49
(g50
g51
NtRp2992
(dp2993
g54
(dp2994
g62
I3
ssg63
g2988
sg56
(lp2995
S'1'
asbasbasbasbasbasbasbasbasbasbasbasbasbsS'frames'
p2996
(lp2997
(dp2998
S'file'
p2999
S'C:\\Users\\avjain\\Downloads\\web2py\\gluon\\restricted.py'
p3000
sS'dump'
p3001
(dp3002
sS'lnum'
p3003
I205
sS'lines'
p3004
(dp3005
sS'call'
p3006
S"(code='# -*- coding: utf-8 -*- \\n# this file is released...ice()\\n\\nresponse._vars=response._caller(settings)\\n', environment={'A': <class 'gluon.html.A'>, 'Auth': <class 'gluon.tools.Auth'>, 'B': <class 'gluon.html.B'>, 'BEAUTIFY': <class 'gluon.html.BEAUTIFY'>, 'BODY': <class 'gluon.html.BODY'>, 'BR': <class 'gluon.html.BR'>, 'BUTTON': <class 'gluon.html.BUTTON'>, 'CAT': <class 'gluon.html.CAT'>, 'CENTER': <class 'gluon.html.CENTER'>, 'CLEANUP': <class 'gluon.validators.CLEANUP'>, ...}, layer=r'C:\\Users\\avjain\\Downloads\\web2py\\applications\\Golf_2\\controllers/default.py')"
p3007
sS'func'
p3008
S'restricted'
p3009
sa(dp3010
g2999
S'C:\\Users\\avjain\\Downloads\\web2py\\applications\\Golf_2\\controllers\\default.py'
p3011
sg3001
(dp3012
sg3003
I98
sg3004
(dp3013
I96
S'    return service()'
p3014
sI87
S''
sI88
S'def call():'
p3015
sI89
S'    """'
p3016
sI90
S'    exposes services. for example:'
p3017
sI91
S'    http://..../[app]/default/call/jsonrpc'
p3018
sI92
S'    decorate with @services.jsonrpc the functions to expose'
p3019
sI93
S'    supports xml, json, xmlrpc, jsonrpc, amfrpc, rss, csv'
p3020
sI94
S'    """'
p3021
sI95
S'    session.forget()'
p3022
ssg3006
S'()'
p3023
sg3008
S'<module>'
p3024
sa(dp3025
g2999
S'C:\\Users\\avjain\\Downloads\\web2py\\gluon\\globals.py'
p3026
sg3001
(dp3027
sg3003
I173
sg3004
(dp3028
sg3006
S'(f=<function settings at 0x05F0F8B0>)'
p3029
sg3008
S'<lambda>'
p3030
sa(dp3031
g2999
S'C:\\Users\\avjain\\Downloads\\web2py\\applications\\Golf_2\\controllers\\default.py'
p3032
sg3001
(dp3033
sg3003
I23
sg3004
(dp3034
I18
S"    return dict(message=T('Hello World'))"
p3035
sI19
S''
sI20
S'def settings():'
p3036
sI21
S'    if not session.login:'
p3037
sI22
S"        redirect(URL('login'))"
p3038
sI23
S'    setting = db(db.user_settings.user_id==session.userid).select(db.user_settings.ALL)[0]'
p3039
sI24
S'    return dict(setting=setting)'
p3040
sI25
S''
sI26
S'def register():'
p3041
sI27
S'     # create an insert form from the table'
p3042
ssg3006
S'()'
p3043
sg3008
S'settings'
p3044
sa(dp3045
g2999
S'C:\\Users\\avjain\\Downloads\\web2py\\gluon\\dal.py'
p3046
sg3001
(dp3047
sg3003
I7755
sg3004
(dp3048
sg3006
S'(self=<gluon.dal.Rows object at 0x029541B0>, i=0)'
p3049
sg3008
g20
sasS'pyver'
p3050
S'Python 2.5.4: C:\\Users\\avjain\\Downloads\\web2py\\web2py.exe'
p3051
sS'session'
p3052
g49
(g50
g51
NtRp3053
(dp3054
g54
(dp3055
sg56
(lp3056
g49
(g58
g51
NtRp3057
(dp3058
g54
(dp3059
g62
I5
ssg63
Nsg56
(lp3060
g49
(g65
g51
NtRp3061
(dp3062
g54
(dp3063
sg63
g3057
sg56
(lp3064
g49
(g70
g51
NtRp3065
(dp3066
g54
(dp3067
g74
g75
ssg63
g3061
sg56
(lp3068
S'login'
p3069
asbag49
(g70
g51
NtRp3070
(dp3071
g54
(dp3072
g81
g82
ssg63
g3061
sg56
(lp3073
S':'
asbag49
(g70
g51
NtRp3074
(dp3075
g54
(dp3076
sg63
g3061
sg56
(lp3077
g49
(g50
g51
NtRp3078
(dp3079
g54
(dp3080
g62
I5
ssg63
g3074
sg56
(lp3081
g1631
asbasbasbag49
(g65
g51
NtRp3082
(dp3083
g54
(dp3084
sg63
g3057
sg56
(lp3085
g49
(g70
g51
NtRp3086
(dp3087
g54
(dp3088
g74
g75
ssg63
g3082
sg56
(lp3089
S'username'
p3090
asbag49
(g70
g51
NtRp3091
(dp3092
g54
(dp3093
g81
g82
ssg63
g3082
sg56
(lp3094
S':'
asbag49
(g70
g51
NtRp3095
(dp3096
g54
(dp3097
sg63
g3082
sg56
(lp3098
g49
(g50
g51
NtRp3099
(dp3100
g54
(dp3101
g62
I5
ssg63
g3095
sg56
(lp3102
S'Avinash Jain'
p3103
asbasbasbasbasbsS'etype'
p3104
S"<type 'exceptions.IndexError'>"
p3105
sS'date'
p3106
S'Fri Jul 13 11:51:27 2012'
p3107
sS'response'
p3108
g49
(g50
g51
NtRp3109
(dp3110
g54
(dp3111
sg56
(lp3112
g49
(g58
g51
NtRp3113
(dp3114
g54
(dp3115
g62
I5
ssg63
Nsg56
(lp3116
g49
(g65
g51
NtRp3117
(dp3118
g54
(dp3119
sg63
g3113
sg56
(lp3120
g49
(g70
g51
NtRp3121
(dp3122
g54
(dp3123
g74
g75
ssg63
g3117
sg56
(lp3124
g147
asbag49
(g70
g51
NtRp3125
(dp3126
g54
(dp3127
g81
g82
ssg63
g3117
sg56
(lp3128
S':'
asbag49
(g70
g51
NtRp3129
(dp3130
g54
(dp3131
sg63
g3117
sg56
(lp3132
g49
(g50
g51
NtRp3133
(dp3134
g54
(dp3135
g62
I5
ssg63
g3129
sg56
(lp3136
S'<cStringIO.StringO object at 0x05D9B100>'
p3137
asbasbasbag49
(g65
g51
NtRp3138
(dp3139
g54
(dp3140
sg63
g3113
sg56
(lp3141
g49
(g70
g51
NtRp3142
(dp3143
g54
(dp3144
g74
g75
ssg63
g3138
sg56
(lp3145
g213
asbag49
(g70
g51
NtRp3146
(dp3147
g54
(dp3148
g81
g82
ssg63
g3138
sg56
(lp3149
S':'
asbag49
(g70
g51
NtRp3150
(dp3151
g54
(dp3152
sg63
g3138
sg56
(lp3153
g49
(g50
g51
NtRp3154
(dp3155
g54
(dp3156
g62
I5
ssg63
g3150
sg56
(lp3157
g49
(g58
g51
NtRp3158
(dp3159
g54
(dp3160
g62
I4
ssg63
Nsg56
(lp3161
g49
(g65
g51
NtRp3162
(dp3163
g54
(dp3164
sg63
g3158
sg56
(lp3165
g49
(g70
g51
NtRp3166
(dp3167
g54
(dp3168
g74
g75
ssg63
g3162
sg56
(lp3169
S'session_id_golf_2'
p3170
asbag49
(g70
g51
NtRp3171
(dp3172
g54
(dp3173
g81
g82
ssg63
g3162
sg56
(lp3174
S':'
asbag49
(g70
g51
NtRp3175
(dp3176
g54
(dp3177
sg63
g3162
sg56
(lp3178
g49
(g50
g51
NtRp3179
(dp3180
g54
(dp3181
g62
I4
ssg63
g3175
sg56
(lp3182
g49
(g58
g51
NtRp3183
(dp3184
g54
(dp3185
g62
I3
ssg63
Nsg56
(lp3186
g49
(g65
g51
NtRp3187
(dp3188
g54
(dp3189
sg63
g3183
sg56
(lp3190
g49
(g70
g51
NtRp3191
(dp3192
g54
(dp3193
g74
g75
ssg63
g3187
sg56
(lp3194
g263
asbag49
(g70
g51
NtRp3195
(dp3196
g54
(dp3197
g81
g82
ssg63
g3187
sg56
(lp3198
S':'
asbag49
(g70
g51
NtRp3199
(dp3200
g54
(dp3201
sg63
g3187
sg56
(lp3202
g49
(g50
g51
NtRp3203
(dp3204
g54
(dp3205
g62
I3
ssg63
g3199
sg56
(lp3206
S''
asbasbasbag49
(g65
g51
NtRp3207
(dp3208
g54
(dp3209
sg63
g3183
sg56
(lp3210
g49
(g70
g51
NtRp3211
(dp3212
g54
(dp3213
g74
g75
ssg63
g3207
sg56
(lp3214
g284
asbag49
(g70
g51
NtRp3215
(dp3216
g54
(dp3217
g81
g82
ssg63
g3207
sg56
(lp3218
S':'
asbag49
(g70
g51
NtRp3219
(dp3220
g54
(dp3221
sg63
g3207
sg56
(lp3222
g49
(g50
g51
NtRp3223
(dp3224
g54
(dp3225
g62
I3
ssg63
g3219
sg56
(lp3226
S''
asbasbasbag49
(g65
g51
NtRp3227
(dp3228
g54
(dp3229
sg63
g3183
sg56
(lp3230
g49
(g70
g51
NtRp3231
(dp3232
g54
(dp3233
g74
g75
ssg63
g3227
sg56
(lp3234
g305
asbag49
(g70
g51
NtRp3235
(dp3236
g54
(dp3237
g81
g82
ssg63
g3227
sg56
(lp3238
S':'
asbag49
(g70
g51
NtRp3239
(dp3240
g54
(dp3241
sg63
g3227
sg56
(lp3242
g49
(g50
g51
NtRp3243
(dp3244
g54
(dp3245
g62
I3
ssg63
g3239
sg56
(lp3246
S''
asbasbasbag49
(g65
g51
NtRp3247
(dp3248
g54
(dp3249
sg63
g3183
sg56
(lp3250
g49
(g70
g51
NtRp3251
(dp3252
g54
(dp3253
g74
g75
ssg63
g3247
sg56
(lp3254
g326
asbag49
(g70
g51
NtRp3255
(dp3256
g54
(dp3257
g81
g82
ssg63
g3247
sg56
(lp3258
S':'
asbag49
(g70
g51
NtRp3259
(dp3260
g54
(dp3261
sg63
g3247
sg56
(lp3262
g49
(g50
g51
NtRp3263
(dp3264
g54
(dp3265
g62
I3
ssg63
g3259
sg56
(lp3266
S''
asbasbasbag49
(g65
g51
NtRp3267
(dp3268
g54
(dp3269
sg63
g3183
sg56
(lp3270
g49
(g70
g51
NtRp3271
(dp3272
g54
(dp3273
g74
g75
ssg63
g3267
sg56
(lp3274
g347
asbag49
(g70
g51
NtRp3275
(dp3276
g54
(dp3277
g81
g82
ssg63
g3267
sg56
(lp3278
S':'
asbag49
(g70
g51
NtRp3279
(dp3280
g54
(dp3281
sg63
g3267
sg56
(lp3282
g49
(g50
g51
NtRp3283
(dp3284
g54
(dp3285
g62
I3
ssg63
g3279
sg56
(lp3286
S'/'
asbasbasbag49
(g65
g51
NtRp3287
(dp3288
g54
(dp3289
sg63
g3183
sg56
(lp3290
g49
(g70
g51
NtRp3291
(dp3292
g54
(dp3293
g74
g75
ssg63
g3287
sg56
(lp3294
g368
asbag49
(g70
g51
NtRp3295
(dp3296
g54
(dp3297
g81
g82
ssg63
g3287
sg56
(lp3298
S':'
asbag49
(g70
g51
NtRp3299
(dp3300
g54
(dp3301
sg63
g3287
sg56
(lp3302
g49
(g50
g51
NtRp3303
(dp3304
g54
(dp3305
g62
I3
ssg63
g3299
sg56
(lp3306
S''
asbasbasbag49
(g65
g51
NtRp3307
(dp3308
g54
(dp3309
sg63
g3183
sg56
(lp3310
g49
(g70
g51
NtRp3311
(dp3312
g54
(dp3313
g74
g75
ssg63
g3307
sg56
(lp3314
g389
asbag49
(g70
g51
NtRp3315
(dp3316
g54
(dp3317
g81
g82
ssg63
g3307
sg56
(lp3318
S':'
asbag49
(g70
g51
NtRp3319
(dp3320
g54
(dp3321
sg63
g3307
sg56
(lp3322
g49
(g50
g51
NtRp3323
(dp3324
g54
(dp3325
g62
I3
ssg63
g3319
sg56
(lp3326
S''
asbasbasbasbasbasbasbasbasbasbasbag49
(g65
g51
NtRp3327
(dp3328
g54
(dp3329
sg63
g3113
sg56
(lp3330
g49
(g70
g51
NtRp3331
(dp3332
g54
(dp3333
g74
g75
ssg63
g3327
sg56
(lp3334
S'delimiters'
p3335
asbag49
(g70
g51
NtRp3336
(dp3337
g54
(dp3338
g81
g82
ssg63
g3327
sg56
(lp3339
S':'
asbag49
(g70
g51
NtRp3340
(dp3341
g54
(dp3342
sg63
g3327
sg56
(lp3343
g49
(g50
g51
NtRp3344
(dp3345
g54
(dp3346
g62
I5
ssg63
g3340
sg56
(lp3347
g49
(g58
g51
NtRp3348
(dp3349
g54
(dp3350
g62
I4
ssg63
Nsg56
(lp3351
g49
(g65
g51
NtRp3352
(dp3353
g54
(dp3354
sg63
g3348
sg56
(lp3355
g49
(g70
g51
NtRp3356
(dp3357
g54
(dp3358
sg63
g3352
sg56
(lp3359
g49
(g50
g51
NtRp3360
(dp3361
g54
(dp3362
g62
I4
ssg63
g3356
sg56
(lp3363
S'{{'
p3364
asbasbasbag49
(g65
g51
NtRp3365
(dp3366
g54
(dp3367
sg63
g3348
sg56
(lp3368
g49
(g70
g51
NtRp3369
(dp3370
g54
(dp3371
sg63
g3365
sg56
(lp3372
g49
(g50
g51
NtRp3373
(dp3374
g54
(dp3375
g62
I4
ssg63
g3369
sg56
(lp3376
S'}}'
p3377
asbasbasbasbasbasbasbag49
(g65
g51
NtRp3378
(dp3379
g54
(dp3380
sg63
g3113
sg56
(lp3381
g49
(g70
g51
NtRp3382
(dp3383
g54
(dp3384
g74
g75
ssg63
g3378
sg56
(lp3385
S'files'
p3386
asbag49
(g70
g51
NtRp3387
(dp3388
g54
(dp3389
g81
g82
ssg63
g3378
sg56
(lp3390
S':'
asbag49
(g70
g51
NtRp3391
(dp3392
g54
(dp3393
sg63
g3378
sg56
(lp3394
g49
(g50
g51
NtRp3395
(dp3396
g54
(dp3397
g62
I5
ssg63
g3391
sg56
(lp3398
g49
(g58
g51
NtRp3399
(dp3400
g54
(dp3401
g62
I4
ssg63
Nsg56
(lp3402
sbasbasbasbag49
(g65
g51
NtRp3403
(dp3404
g54
(dp3405
sg63
g3113
sg56
(lp3406
g49
(g70
g51
NtRp3407
(dp3408
g54
(dp3409
g74
g75
ssg63
g3403
sg56
(lp3410
S'flash'
p3411
asbag49
(g70
g51
NtRp3412
(dp3413
g54
(dp3414
g81
g82
ssg63
g3403
sg56
(lp3415
S':'
asbag49
(g70
g51
NtRp3416
(dp3417
g54
(dp3418
sg63
g3403
sg56
(lp3419
g49
(g50
g51
NtRp3420
(dp3421
g54
(dp3422
g62
I5
ssg63
g3416
sg56
(lp3423
S''
asbasbasbag49
(g65
g51
NtRp3424
(dp3425
g54
(dp3426
sg63
g3113
sg56
(lp3427
g49
(g70
g51
NtRp3428
(dp3429
g54
(dp3430
g74
g75
ssg63
g3424
sg56
(lp3431
S'generic_patterns'
p3432
asbag49
(g70
g51
NtRp3433
(dp3434
g54
(dp3435
g81
g82
ssg63
g3424
sg56
(lp3436
S':'
asbag49
(g70
g51
NtRp3437
(dp3438
g54
(dp3439
sg63
g3424
sg56
(lp3440
g49
(g50
g51
NtRp3441
(dp3442
g54
(dp3443
g62
I5
ssg63
g3437
sg56
(lp3444
g49
(g58
g51
NtRp3445
(dp3446
g54
(dp3447
g62
I4
ssg63
Nsg56
(lp3448
sbasbasbasbag49
(g65
g51
NtRp3449
(dp3450
g54
(dp3451
sg63
g3113
sg56
(lp3452
g49
(g70
g51
NtRp3453
(dp3454
g54
(dp3455
g74
g75
ssg63
g3449
sg56
(lp3456
S'headers'
p3457
asbag49
(g70
g51
NtRp3458
(dp3459
g54
(dp3460
g81
g82
ssg63
g3449
sg56
(lp3461
S':'
asbag49
(g70
g51
NtRp3462
(dp3463
g54
(dp3464
sg63
g3449
sg56
(lp3465
g49
(g50
g51
NtRp3466
(dp3467
g54
(dp3468
g62
I5
ssg63
g3462
sg56
(lp3469
g49
(g58
g51
NtRp3470
(dp3471
g54
(dp3472
g62
I4
ssg63
Nsg56
(lp3473
g49
(g65
g51
NtRp3474
(dp3475
g54
(dp3476
sg63
g3470
sg56
(lp3477
g49
(g70
g51
NtRp3478
(dp3479
g54
(dp3480
g74
g75
ssg63
g3474
sg56
(lp3481
S'Cache-Control'
p3482
asbag49
(g70
g51
NtRp3483
(dp3484
g54
(dp3485
g81
g82
ssg63
g3474
sg56
(lp3486
S':'
asbag49
(g70
g51
NtRp3487
(dp3488
g54
(dp3489
sg63
g3474
sg56
(lp3490
g49
(g50
g51
NtRp3491
(dp3492
g54
(dp3493
g62
I4
ssg63
g3487
sg56
(lp3494
S'no-store, no-cache, must-revalidate, post-check=0, pre-check=0'
p3495
asbasbasbag49
(g65
g51
NtRp3496
(dp3497
g54
(dp3498
sg63
g3470
sg56
(lp3499
g49
(g70
g51
NtRp3500
(dp3501
g54
(dp3502
g74
g75
ssg63
g3496
sg56
(lp3503
S'Content-Type'
p3504
asbag49
(g70
g51
NtRp3505
(dp3506
g54
(dp3507
g81
g82
ssg63
g3496
sg56
(lp3508
S':'
asbag49
(g70
g51
NtRp3509
(dp3510
g54
(dp3511
sg63
g3496
sg56
(lp3512
g49
(g50
g51
NtRp3513
(dp3514
g54
(dp3515
g62
I4
ssg63
g3509
sg56
(lp3516
S'text/html; charset=utf-8'
p3517
asbasbasbag49
(g65
g51
NtRp3518
(dp3519
g54
(dp3520
sg63
g3470
sg56
(lp3521
g49
(g70
g51
NtRp3522
(dp3523
g54
(dp3524
g74
g75
ssg63
g3518
sg56
(lp3525
S'Expires'
p3526
asbag49
(g70
g51
NtRp3527
(dp3528
g54
(dp3529
g81
g82
ssg63
g3518
sg56
(lp3530
S':'
asbag49
(g70
g51
NtRp3531
(dp3532
g54
(dp3533
sg63
g3518
sg56
(lp3534
g49
(g50
g51
NtRp3535
(dp3536
g54
(dp3537
g62
I4
ssg63
g3531
sg56
(lp3538
S'Fri, 13 Jul 2012 06:21:27 GMT'
p3539
asbasbasbag49
(g65
g51
NtRp3540
(dp3541
g54
(dp3542
sg63
g3470
sg56
(lp3543
g49
(g70
g51
NtRp3544
(dp3545
g54
(dp3546
g74
g75
ssg63
g3540
sg56
(lp3547
S'Pragma'
p3548
asbag49
(g70
g51
NtRp3549
(dp3550
g54
(dp3551
g81
g82
ssg63
g3540
sg56
(lp3552
S':'
asbag49
(g70
g51
NtRp3553
(dp3554
g54
(dp3555
sg63
g3540
sg56
(lp3556
g49
(g50
g51
NtRp3557
(dp3558
g54
(dp3559
g62
I4
ssg63
g3553
sg56
(lp3560
S'no-cache'
p3561
asbasbasbag49
(g65
g51
NtRp3562
(dp3563
g54
(dp3564
sg63
g3470
sg56
(lp3565
g49
(g70
g51
NtRp3566
(dp3567
g54
(dp3568
g74
g75
ssg63
g3562
sg56
(lp3569
S'X-Powered-By'
p3570
asbag49
(g70
g51
NtRp3571
(dp3572
g54
(dp3573
g81
g82
ssg63
g3562
sg56
(lp3574
S':'
asbag49
(g70
g51
NtRp3575
(dp3576
g54
(dp3577
sg63
g3562
sg56
(lp3578
g49
(g50
g51
NtRp3579
(dp3580
g54
(dp3581
g62
I4
ssg63
g3575
sg56
(lp3582
S'web2py'
p3583
asbasbasbasbasbasbasbag49
(g65
g51
NtRp3584
(dp3585
g54
(dp3586
sg63
g3113
sg56
(lp3587
g49
(g70
g51
NtRp3588
(dp3589
g54
(dp3590
g74
g75
ssg63
g3584
sg56
(lp3591
S'menu'
p3592
asbag49
(g70
g51
NtRp3593
(dp3594
g54
(dp3595
g81
g82
ssg63
g3584
sg56
(lp3596
S':'
asbag49
(g70
g51
NtRp3597
(dp3598
g54
(dp3599
sg63
g3584
sg56
(lp3600
g49
(g50
g51
NtRp3601
(dp3602
g54
(dp3603
g62
I5
ssg63
g3597
sg56
(lp3604
g49
(g58
g51
NtRp3605
(dp3606
g54
(dp3607
g62
I4
ssg63
Nsg56
(lp3608
g49
(g65
g51
NtRp3609
(dp3610
g54
(dp3611
sg63
g3605
sg56
(lp3612
g49
(g70
g51
NtRp3613
(dp3614
g54
(dp3615
sg63
g3609
sg56
(lp3616
g49
(g50
g51
NtRp3617
(dp3618
g54
(dp3619
g62
I4
ssg63
g3613
sg56
(lp3620
g49
(g58
g51
NtRp3621
(dp3622
g54
(dp3623
g62
I3
ssg63
Nsg56
(lp3624
g49
(g65
g51
NtRp3625
(dp3626
g54
(dp3627
sg63
g3621
sg56
(lp3628
g49
(g70
g51
NtRp3629
(dp3630
g54
(dp3631
sg63
g3625
sg56
(lp3632
g49
(g50
g51
NtRp3633
(dp3634
g54
(dp3635
g62
I3
ssg63
g3629
sg56
(lp3636
cgluon.languages
lazyT_unpickle
p3637
(S's\x04\x00\x00\x00Home'
tRp3638
asbasbasbag49
(g65
g51
NtRp3639
(dp3640
g54
(dp3641
sg63
g3621
sg56
(lp3642
g49
(g70
g51
NtRp3643
(dp3644
g54
(dp3645
sg63
g3639
sg56
(lp3646
g49
(g50
g51
NtRp3647
(dp3648
g54
(dp3649
g62
I3
ssg63
g3643
sg56
(lp3650
g92
asbasbasbag49
(g65
g51
NtRp3651
(dp3652
g54
(dp3653
sg63
g3621
sg56
(lp3654
g49
(g70
g51
NtRp3655
(dp3656
g54
(dp3657
sg63
g3651
sg56
(lp3658
g49
(g50
g51
NtRp3659
(dp3660
g54
(dp3661
g62
I3
ssg63
g3655
sg56
(lp3662
S'/Golf_2/default/index'
p3663
asbasbasbag49
(g65
g51
NtRp3664
(dp3665
g54
(dp3666
sg63
g3621
sg56
(lp3667
g49
(g70
g51
NtRp3668
(dp3669
g54
(dp3670
sg63
g3664
sg56
(lp3671
g49
(g50
g51
NtRp3672
(dp3673
g54
(dp3674
g62
I3
ssg63
g3668
sg56
(lp3675
g49
(g58
g51
NtRp3676
(dp3677
g54
(dp3678
g62
I2
ssg63
Nsg56
(lp3679
sbasbasbasbasbasbasbasbag49
(g65
g51
NtRp3680
(dp3681
g54
(dp3682
sg63
g3605
sg56
(lp3683
g49
(g70
g51
NtRp3684
(dp3685
g54
(dp3686
sg63
g3680
sg56
(lp3687
g49
(g50
g51
NtRp3688
(dp3689
g54
(dp3690
g62
I4
ssg63
g3684
sg56
(lp3691
g49
(g58
g51
NtRp3692
(dp3693
g54
(dp3694
g62
I3
ssg63
Nsg56
(lp3695
g49
(g65
g51
NtRp3696
(dp3697
g54
(dp3698
sg63
g3692
sg56
(lp3699
g49
(g70
g51
NtRp3700
(dp3701
g54
(dp3702
sg63
g3696
sg56
(lp3703
g49
(g50
g51
NtRp3704
(dp3705
g54
(dp3706
g62
I3
ssg63
g3700
sg56
(lp3707
g3637
(S's\x08\x00\x00\x00This App'
tRp3708
asbasbasbag49
(g65
g51
NtRp3709
(dp3710
g54
(dp3711
sg63
g3692
sg56
(lp3712
g49
(g70
g51
NtRp3713
(dp3714
g54
(dp3715
sg63
g3709
sg56
(lp3716
g49
(g50
g51
NtRp3717
(dp3718
g54
(dp3719
g62
I3
ssg63
g3713
sg56
(lp3720
g92
asbasbasbag49
(g65
g51
NtRp3721
(dp3722
g54
(dp3723
sg63
g3692
sg56
(lp3724
g49
(g70
g51
NtRp3725
(dp3726
g54
(dp3727
sg63
g3721
sg56
(lp3728
g49
(g50
g51
NtRp3729
(dp3730
g54
(dp3731
g62
I3
ssg63
g3725
sg56
(lp3732
S'/admin/default/design/Golf_2'
p3733
asbasbasbag49
(g65
g51
NtRp3734
(dp3735
g54
(dp3736
sg63
g3692
sg56
(lp3737
g49
(g70
g51
NtRp3738
(dp3739
g54
(dp3740
sg63
g3734
sg56
(lp3741
g49
(g50
g51
NtRp3742
(dp3743
g54
(dp3744
g62
I3
ssg63
g3738
sg56
(lp3745
g49
(g58
g51
NtRp3746
(dp3747
g54
(dp3748
g62
I2
ssg63
Nsg56
(lp3749
g49
(g65
g51
NtRp3750
(dp3751
g54
(dp3752
sg63
g3746
sg56
(lp3753
g49
(g70
g51
NtRp3754
(dp3755
g54
(dp3756
sg63
g3750
sg56
(lp3757
g49
(g50
g51
NtRp3758
(dp3759
g54
(dp3760
g62
I2
ssg63
g3754
sg56
(lp3761
g49
(g58
g51
NtRp3762
(dp3763
g54
(dp3764
g62
I1
ssg63
Nsg56
(lp3765
g49
(g65
g51
NtRp3766
(dp3767
g54
(dp3768
sg63
g3762
sg56
(lp3769
g49
(g70
g51
NtRp3770
(dp3771
g54
(dp3772
sg63
g3766
sg56
(lp3773
g49
(g50
g51
NtRp3774
(dp3775
g54
(dp3776
g62
I1
ssg63
g3770
sg56
(lp3777
g3637
(S's\n\x00\x00\x00Controller'
tRp3778
asbasbasbag49
(g65
g51
NtRp3779
(dp3780
g54
(dp3781
sg63
g3762
sg56
(lp3782
g49
(g70
g51
NtRp3783
(dp3784
g54
(dp3785
sg63
g3779
sg56
(lp3786
g49
(g50
g51
NtRp3787
(dp3788
g54
(dp3789
g62
I1
ssg63
g3783
sg56
(lp3790
I00
asbasbasbag49
(g65
g51
NtRp3791
(dp3792
g54
(dp3793
sg63
g3762
sg56
(lp3794
g49
(g70
g51
NtRp3795
(dp3796
g54
(dp3797
sg63
g3791
sg56
(lp3798
g49
(g50
g51
NtRp3799
(dp3800
g54
(dp3801
g62
I1
ssg63
g3795
sg56
(lp3802
S'/admin/default/edit/Golf_2/controllers/default.py'
p3803
asbasbasbasbasbasbasbag49
(g65
g51
NtRp3804
(dp3805
g54
(dp3806
sg63
g3746
sg56
(lp3807
g49
(g70
g51
NtRp3808
(dp3809
g54
(dp3810
sg63
g3804
sg56
(lp3811
g49
(g50
g51
NtRp3812
(dp3813
g54
(dp3814
g62
I2
ssg63
g3808
sg56
(lp3815
g49
(g58
g51
NtRp3816
(dp3817
g54
(dp3818
g62
I1
ssg63
Nsg56
(lp3819
g49
(g65
g51
NtRp3820
(dp3821
g54
(dp3822
sg63
g3816
sg56
(lp3823
g49
(g70
g51
NtRp3824
(dp3825
g54
(dp3826
sg63
g3820
sg56
(lp3827
g49
(g50
g51
NtRp3828
(dp3829
g54
(dp3830
g62
I1
ssg63
g3824
sg56
(lp3831
g3637
(S's\x04\x00\x00\x00View'
tRp3832
asbasbasbag49
(g65
g51
NtRp3833
(dp3834
g54
(dp3835
sg63
g3816
sg56
(lp3836
g49
(g70
g51
NtRp3837
(dp3838
g54
(dp3839
sg63
g3833
sg56
(lp3840
g49
(g50
g51
NtRp3841
(dp3842
g54
(dp3843
g62
I1
ssg63
g3837
sg56
(lp3844
I00
asbasbasbag49
(g65
g51
NtRp3845
(dp3846
g54
(dp3847
sg63
g3816
sg56
(lp3848
g49
(g70
g51
NtRp3849
(dp3850
g54
(dp3851
sg63
g3845
sg56
(lp3852
g49
(g50
g51
NtRp3853
(dp3854
g54
(dp3855
g62
I1
ssg63
g3849
sg56
(lp3856
S'/admin/default/edit/Golf_2/views/default/settings.html'
p3857
asbasbasbasbasbasbasbag49
(g65
g51
NtRp3858
(dp3859
g54
(dp3860
sg63
g3746
sg56
(lp3861
g49
(g70
g51
NtRp3862
(dp3863
g54
(dp3864
sg63
g3858
sg56
(lp3865
g49
(g50
g51
NtRp3866
(dp3867
g54
(dp3868
g62
I2
ssg63
g3862
sg56
(lp3869
g49
(g58
g51
NtRp3870
(dp3871
g54
(dp3872
g62
I1
ssg63
Nsg56
(lp3873
g49
(g65
g51
NtRp3874
(dp3875
g54
(dp3876
sg63
g3870
sg56
(lp3877
g49
(g70
g51
NtRp3878
(dp3879
g54
(dp3880
sg63
g3874
sg56
(lp3881
g49
(g50
g51
NtRp3882
(dp3883
g54
(dp3884
g62
I1
ssg63
g3878
sg56
(lp3885
g3637
(S's\x06\x00\x00\x00Layout'
tRp3886
asbasbasbag49
(g65
g51
NtRp3887
(dp3888
g54
(dp3889
sg63
g3870
sg56
(lp3890
g49
(g70
g51
NtRp3891
(dp3892
g54
(dp3893
sg63
g3887
sg56
(lp3894
g49
(g50
g51
NtRp3895
(dp3896
g54
(dp3897
g62
I1
ssg63
g3891
sg56
(lp3898
I00
asbasbasbag49
(g65
g51
NtRp3899
(dp3900
g54
(dp3901
sg63
g3870
sg56
(lp3902
g49
(g70
g51
NtRp3903
(dp3904
g54
(dp3905
sg63
g3899
sg56
(lp3906
g49
(g50
g51
NtRp3907
(dp3908
g54
(dp3909
g62
I1
ssg63
g3903
sg56
(lp3910
S'/admin/default/edit/Golf_2/views/layout.html'
p3911
asbasbasbasbasbasbasbag49
(g65
g51
NtRp3912
(dp3913
g54
(dp3914
sg63
g3746
sg56
(lp3915
g49
(g70
g51
NtRp3916
(dp3917
g54
(dp3918
sg63
g3912
sg56
(lp3919
g49
(g50
g51
NtRp3920
(dp3921
g54
(dp3922
g62
I2
ssg63
g3916
sg56
(lp3923
g49
(g58
g51
NtRp3924
(dp3925
g54
(dp3926
g62
I1
ssg63
Nsg56
(lp3927
g49
(g65
g51
NtRp3928
(dp3929
g54
(dp3930
sg63
g3924
sg56
(lp3931
g49
(g70
g51
NtRp3932
(dp3933
g54
(dp3934
sg63
g3928
sg56
(lp3935
g49
(g50
g51
NtRp3936
(dp3937
g54
(dp3938
g62
I1
ssg63
g3932
sg56
(lp3939
g3637
(S's\n\x00\x00\x00Stylesheet'
tRp3940
asbasbasbag49
(g65
g51
NtRp3941
(dp3942
g54
(dp3943
sg63
g3924
sg56
(lp3944
g49
(g70
g51
NtRp3945
(dp3946
g54
(dp3947
sg63
g3941
sg56
(lp3948
g49
(g50
g51
NtRp3949
(dp3950
g54
(dp3951
g62
I1
ssg63
g3945
sg56
(lp3952
I00
asbasbasbag49
(g65
g51
NtRp3953
(dp3954
g54
(dp3955
sg63
g3924
sg56
(lp3956
g49
(g70
g51
NtRp3957
(dp3958
g54
(dp3959
sg63
g3953
sg56
(lp3960
g49
(g50
g51
NtRp3961
(dp3962
g54
(dp3963
g62
I1
ssg63
g3957
sg56
(lp3964
S'/admin/default/edit/Golf_2/static/base.css'
p3965
asbasbasbasbasbasbasbag49
(g65
g51
NtRp3966
(dp3967
g54
(dp3968
sg63
g3746
sg56
(lp3969
g49
(g70
g51
NtRp3970
(dp3971
g54
(dp3972
sg63
g3966
sg56
(lp3973
g49
(g50
g51
NtRp3974
(dp3975
g54
(dp3976
g62
I2
ssg63
g3970
sg56
(lp3977
g49
(g58
g51
NtRp3978
(dp3979
g54
(dp3980
g62
I1
ssg63
Nsg56
(lp3981
g49
(g65
g51
NtRp3982
(dp3983
g54
(dp3984
sg63
g3978
sg56
(lp3985
g49
(g70
g51
NtRp3986
(dp3987
g54
(dp3988
sg63
g3982
sg56
(lp3989
g49
(g50
g51
NtRp3990
(dp3991
g54
(dp3992
g62
I1
ssg63
g3986
sg56
(lp3993
g3637
(S's\x08\x00\x00\x00DB Model'
tRp3994
asbasbasbag49
(g65
g51
NtRp3995
(dp3996
g54
(dp3997
sg63
g3978
sg56
(lp3998
g49
(g70
g51
NtRp3999
(dp4000
g54
(dp4001
sg63
g3995
sg56
(lp4002
g49
(g50
g51
NtRp4003
(dp4004
g54
(dp4005
g62
I1
ssg63
g3999
sg56
(lp4006
I00
asbasbasbag49
(g65
g51
NtRp4007
(dp4008
g54
(dp4009
sg63
g3978
sg56
(lp4010
g49
(g70
g51
NtRp4011
(dp4012
g54
(dp4013
sg63
g4007
sg56
(lp4014
g49
(g50
g51
NtRp4015
(dp4016
g54
(dp4017
g62
I1
ssg63
g4011
sg56
(lp4018
S'/admin/default/edit/Golf_2/models/db.py'
p4019
asbasbasbasbasbasbasbag49
(g65
g51
NtRp4020
(dp4021
g54
(dp4022
sg63
g3746
sg56
(lp4023
g49
(g70
g51
NtRp4024
(dp4025
g54
(dp4026
sg63
g4020
sg56
(lp4027
g49
(g50
g51
NtRp4028
(dp4029
g54
(dp4030
g62
I2
ssg63
g4024
sg56
(lp4031
g49
(g58
g51
NtRp4032
(dp4033
g54
(dp4034
g62
I1
ssg63
Nsg56
(lp4035
g49
(g65
g51
NtRp4036
(dp4037
g54
(dp4038
sg63
g4032
sg56
(lp4039
g49
(g70
g51
NtRp4040
(dp4041
g54
(dp4042
sg63
g4036
sg56
(lp4043
g49
(g50
g51
NtRp4044
(dp4045
g54
(dp4046
g62
I1
ssg63
g4040
sg56
(lp4047
g3637
(S's\n\x00\x00\x00Menu Model'
tRp4048
asbasbasbag49
(g65
g51
NtRp4049
(dp4050
g54
(dp4051
sg63
g4032
sg56
(lp4052
g49
(g70
g51
NtRp4053
(dp4054
g54
(dp4055
sg63
g4049
sg56
(lp4056
g49
(g50
g51
NtRp4057
(dp4058
g54
(dp4059
g62
I1
ssg63
g4053
sg56
(lp4060
I00
asbasbasbag49
(g65
g51
NtRp4061
(dp4062
g54
(dp4063
sg63
g4032
sg56
(lp4064
g49
(g70
g51
NtRp4065
(dp4066
g54
(dp4067
sg63
g4061
sg56
(lp4068
g49
(g50
g51
NtRp4069
(dp4070
g54
(dp4071
g62
I1
ssg63
g4065
sg56
(lp4072
S'/admin/default/edit/Golf_2/models/menu.py'
p4073
asbasbasbasbasbasbasbag49
(g65
g51
NtRp4074
(dp4075
g54
(dp4076
sg63
g3746
sg56
(lp4077
g49
(g70
g51
NtRp4078
(dp4079
g54
(dp4080
sg63
g4074
sg56
(lp4081
g49
(g50
g51
NtRp4082
(dp4083
g54
(dp4084
g62
I2
ssg63
g4078
sg56
(lp4085
g49
(g58
g51
NtRp4086
(dp4087
g54
(dp4088
g62
I1
ssg63
Nsg56
(lp4089
g49
(g65
g51
NtRp4090
(dp4091
g54
(dp4092
sg63
g4086
sg56
(lp4093
g49
(g70
g51
NtRp4094
(dp4095
g54
(dp4096
sg63
g4090
sg56
(lp4097
g49
(g50
g51
NtRp4098
(dp4099
g54
(dp4100
g62
I1
ssg63
g4094
sg56
(lp4101
g3637
(S's\x08\x00\x00\x00Database'
tRp4102
asbasbasbag49
(g65
g51
NtRp4103
(dp4104
g54
(dp4105
sg63
g4086
sg56
(lp4106
g49
(g70
g51
NtRp4107
(dp4108
g54
(dp4109
sg63
g4103
sg56
(lp4110
g49
(g50
g51
NtRp4111
(dp4112
g54
(dp4113
g62
I1
ssg63
g4107
sg56
(lp4114
I00
asbasbasbag49
(g65
g51
NtRp4115
(dp4116
g54
(dp4117
sg63
g4086
sg56
(lp4118
g49
(g70
g51
NtRp4119
(dp4120
g54
(dp4121
sg63
g4115
sg56
(lp4122
g49
(g50
g51
NtRp4123
(dp4124
g54
(dp4125
g62
I1
ssg63
g4119
sg56
(lp4126
S'/Golf_2/appadmin/index'
p4127
asbasbasbasbasbasbasbag49
(g65
g51
NtRp4128
(dp4129
g54
(dp4130
sg63
g3746
sg56
(lp4131
g49
(g70
g51
NtRp4132
(dp4133
g54
(dp4134
sg63
g4128
sg56
(lp4135
g49
(g50
g51
NtRp4136
(dp4137
g54
(dp4138
g62
I2
ssg63
g4132
sg56
(lp4139
g49
(g58
g51
NtRp4140
(dp4141
g54
(dp4142
g62
I1
ssg63
Nsg56
(lp4143
g49
(g65
g51
NtRp4144
(dp4145
g54
(dp4146
sg63
g4140
sg56
(lp4147
g49
(g70
g51
NtRp4148
(dp4149
g54
(dp4150
sg63
g4144
sg56
(lp4151
g49
(g50
g51
NtRp4152
(dp4153
g54
(dp4154
g62
I1
ssg63
g4148
sg56
(lp4155
g3637
(S's\x06\x00\x00\x00Errors'
tRp4156
asbasbasbag49
(g65
g51
NtRp4157
(dp4158
g54
(dp4159
sg63
g4140
sg56
(lp4160
g49
(g70
g51
NtRp4161
(dp4162
g54
(dp4163
sg63
g4157
sg56
(lp4164
g49
(g50
g51
NtRp4165
(dp4166
g54
(dp4167
g62
I1
ssg63
g4161
sg56
(lp4168
I00
asbasbasbag49
(g65
g51
NtRp4169
(dp4170
g54
(dp4171
sg63
g4140
sg56
(lp4172
g49
(g70
g51
NtRp4173
(dp4174
g54
(dp4175
sg63
g4169
sg56
(lp4176
g49
(g50
g51
NtRp4177
(dp4178
g54
(dp4179
g62
I1
ssg63
g4173
sg56
(lp4180
S'/admin/default/errors/Golf_2'
p4181
asbasbasbasbasbasbasbag49
(g65
g51
NtRp4182
(dp4183
g54
(dp4184
sg63
g3746
sg56
(lp4185
g49
(g70
g51
NtRp4186
(dp4187
g54
(dp4188
sg63
g4182
sg56
(lp4189
g49
(g50
g51
NtRp4190
(dp4191
g54
(dp4192
g62
I2
ssg63
g4186
sg56
(lp4193
g49
(g58
g51
NtRp4194
(dp4195
g54
(dp4196
g62
I1
ssg63
Nsg56
(lp4197
g49
(g65
g51
NtRp4198
(dp4199
g54
(dp4200
sg63
g4194
sg56
(lp4201
g49
(g70
g51
NtRp4202
(dp4203
g54
(dp4204
sg63
g4198
sg56
(lp4205
g49
(g50
g51
NtRp4206
(dp4207
g54
(dp4208
g62
I1
ssg63
g4202
sg56
(lp4209
g3637
(S's\x05\x00\x00\x00About'
tRp4210
asbasbasbag49
(g65
g51
NtRp4211
(dp4212
g54
(dp4213
sg63
g4194
sg56
(lp4214
g49
(g70
g51
NtRp4215
(dp4216
g54
(dp4217
sg63
g4211
sg56
(lp4218
g49
(g50
g51
NtRp4219
(dp4220
g54
(dp4221
g62
I1
ssg63
g4215
sg56
(lp4222
I00
asbasbasbag49
(g65
g51
NtRp4223
(dp4224
g54
(dp4225
sg63
g4194
sg56
(lp4226
g49
(g70
g51
NtRp4227
(dp4228
g54
(dp4229
sg63
g4223
sg56
(lp4230
g49
(g50
g51
NtRp4231
(dp4232
g54
(dp4233
g62
I1
ssg63
g4227
sg56
(lp4234
S'/admin/default/about/Golf_2'
p4235
asbasbasbasbasbasbasbasbasbasbasbasbasbasbasbag49
(g65
g51
NtRp4236
(dp4237
g54
(dp4238
sg63
g3605
sg56
(lp4239
g49
(g70
g51
NtRp4240
(dp4241
g54
(dp4242
sg63
g4236
sg56
(lp4243
g49
(g50
g51
NtRp4244
(dp4245
g54
(dp4246
g62
I4
ssg63
g4240
sg56
(lp4247
g49
(g58
g51
NtRp4248
(dp4249
g54
(dp4250
g62
I3
ssg63
Nsg56
(lp4251
g49
(g65
g51
NtRp4252
(dp4253
g54
(dp4254
sg63
g4248
sg56
(lp4255
g49
(g70
g51
NtRp4256
(dp4257
g54
(dp4258
sg63
g4252
sg56
(lp4259
g49
(g50
g51
NtRp4260
(dp4261
g54
(dp4262
g62
I3
ssg63
g4256
sg56
(lp4263
g3637
(S's\t\x00\x00\x00Resources'
tRp4264
asbasbasbag49
(g65
g51
NtRp4265
(dp4266
g54
(dp4267
sg63
g4248
sg56
(lp4268
g49
(g70
g51
NtRp4269
(dp4270
g54
(dp4271
sg63
g4265
sg56
(lp4272
g49
(g50
g51
NtRp4273
(dp4274
g54
(dp4275
g62
I3
ssg63
g4269
sg56
(lp4276
g92
asbasbasbag49
(g65
g51
NtRp4277
(dp4278
g54
(dp4279
sg63
g4248
sg56
(lp4280
g49
(g70
g51
NtRp4281
(dp4282
g54
(dp4283
sg63
g4277
sg56
(lp4284
g49
(g50
g51
NtRp4285
(dp4286
g54
(dp4287
g62
I3
ssg63
g4281
sg56
(lp4288
S'None'
p4289
asbasbasbag49
(g65
g51
NtRp4290
(dp4291
g54
(dp4292
sg63
g4248
sg56
(lp4293
g49
(g70
g51
NtRp4294
(dp4295
g54
(dp4296
sg63
g4290
sg56
(lp4297
g49
(g50
g51
NtRp4298
(dp4299
g54
(dp4300
g62
I3
ssg63
g4294
sg56
(lp4301
g49
(g58
g51
NtRp4302
(dp4303
g54
(dp4304
g62
I2
ssg63
Nsg56
(lp4305
g49
(g65
g51
NtRp4306
(dp4307
g54
(dp4308
sg63
g4302
sg56
(lp4309
g49
(g70
g51
NtRp4310
(dp4311
g54
(dp4312
sg63
g4306
sg56
(lp4313
g49
(g50
g51
NtRp4314
(dp4315
g54
(dp4316
g62
I2
ssg63
g4310
sg56
(lp4317
g49
(g58
g51
NtRp4318
(dp4319
g54
(dp4320
g62
I1
ssg63
Nsg56
(lp4321
g49
(g65
g51
NtRp4322
(dp4323
g54
(dp4324
sg63
g4318
sg56
(lp4325
g49
(g70
g51
NtRp4326
(dp4327
g54
(dp4328
sg63
g4322
sg56
(lp4329
g49
(g50
g51
NtRp4330
(dp4331
g54
(dp4332
g62
I1
ssg63
g4326
sg56
(lp4333
g3637
(S's\r\x00\x00\x00Documentation'
tRp4334
asbasbasbag49
(g65
g51
NtRp4335
(dp4336
g54
(dp4337
sg63
g4318
sg56
(lp4338
g49
(g70
g51
NtRp4339
(dp4340
g54
(dp4341
sg63
g4335
sg56
(lp4342
g49
(g50
g51
NtRp4343
(dp4344
g54
(dp4345
g62
I1
ssg63
g4339
sg56
(lp4346
I00
asbasbasbag49
(g65
g51
NtRp4347
(dp4348
g54
(dp4349
sg63
g4318
sg56
(lp4350
g49
(g70
g51
NtRp4351
(dp4352
g54
(dp4353
sg63
g4347
sg56
(lp4354
g49
(g50
g51
NtRp4355
(dp4356
g54
(dp4357
g62
I1
ssg63
g4351
sg56
(lp4358
S'http://www.web2py.com/book'
p4359
asbasbasbag49
(g65
g51
NtRp4360
(dp4361
g54
(dp4362
sg63
g4318
sg56
(lp4363
g49
(g70
g51
NtRp4364
(dp4365
g54
(dp4366
sg63
g4360
sg56
(lp4367
g49
(g50
g51
NtRp4368
(dp4369
g54
(dp4370
g62
I1
ssg63
g4364
sg56
(lp4371
(lp4372
(g3637
(S's\x07\x00\x00\x00Preface'
tRp4373
I00
S'http://www.web2py.com/book/default/chapter/00'
tp4374
a(g3637
(S's\x0c\x00\x00\x00Introduction'
tRp4375
I00
S'http://www.web2py.com/book/default/chapter/01'
tp4376
a(g3637
(S's\x06\x00\x00\x00Python'
tRp4377
I00
S'http://www.web2py.com/book/default/chapter/02'
tp4378
a(g3637
(S's\x08\x00\x00\x00Overview'
tRp4379
I00
S'http://www.web2py.com/book/default/chapter/03'
tp4380
a(g3637
(S's\x08\x00\x00\x00The Core'
tRp4381
I00
S'http://www.web2py.com/book/default/chapter/04'
tp4382
a(g3637
(S's\t\x00\x00\x00The Views'
tRp4383
I00
S'http://www.web2py.com/book/default/chapter/05'
tp4384
a(g3637
(S's\x08\x00\x00\x00Database'
tRp4385
I00
S'http://www.web2py.com/book/default/chapter/06'
tp4386
a(g3637
(S's\x14\x00\x00\x00Forms and Validators'
tRp4387
I00
S'http://www.web2py.com/book/default/chapter/07'
tp4388
a(g3637
(S's\x0e\x00\x00\x00Access Control'
tRp4389
I00
S'http://www.web2py.com/book/default/chapter/08'
tp4390
a(g3637
(S's\x08\x00\x00\x00Services'
tRp4391
I00
S'http://www.web2py.com/book/default/chapter/09'
tp4392
a(g3637
(S's\x0c\x00\x00\x00Ajax Recipes'
tRp4393
I00
S'http://www.web2py.com/book/default/chapter/10'
tp4394
a(g3637
(S's\x12\x00\x00\x00Deployment Recipes'
tRp4395
I00
S'http://www.web2py.com/book/default/chapter/11'
tp4396
a(g3637
(S's\r\x00\x00\x00Other Recipes'
tRp4397
I00
S'http://www.web2py.com/book/default/chapter/12'
tp4398
a(g3637
(S's\r\x00\x00\x00Buy this book'
tRp4399
I00
S'http://stores.lulu.com/web2py'
tp4400
aasbasbasbasbasbasbasbag49
(g65
g51
NtRp4401
(dp4402
g54
(dp4403
sg63
g4302
sg56
(lp4404
g49
(g70
g51
NtRp4405
(dp4406
g54
(dp4407
sg63
g4401
sg56
(lp4408
g49
(g50
g51
NtRp4409
(dp4410
g54
(dp4411
g62
I2
ssg63
g4405
sg56
(lp4412
g49
(g58
g51
NtRp4413
(dp4414
g54
(dp4415
g62
I1
ssg63
Nsg56
(lp4416
g49
(g65
g51
NtRp4417
(dp4418
g54
(dp4419
sg63
g4413
sg56
(lp4420
g49
(g70
g51
NtRp4421
(dp4422
g54
(dp4423
sg63
g4417
sg56
(lp4424
g49
(g50
g51
NtRp4425
(dp4426
g54
(dp4427
g62
I1
ssg63
g4421
sg56
(lp4428
g3637
(S's\t\x00\x00\x00Community'
tRp4429
asbasbasbag49
(g65
g51
NtRp4430
(dp4431
g54
(dp4432
sg63
g4413
sg56
(lp4433
g49
(g70
g51
NtRp4434
(dp4435
g54
(dp4436
sg63
g4430
sg56
(lp4437
g49
(g50
g51
NtRp4438
(dp4439
g54
(dp4440
g62
I1
ssg63
g4434
sg56
(lp4441
I00
asbasbasbag49
(g65
g51
NtRp4442
(dp4443
g54
(dp4444
sg63
g4413
sg56
(lp4445
g49
(g70
g51
NtRp4446
(dp4447
g54
(dp4448
sg63
g4442
sg56
(lp4449
g49
(g50
g51
NtRp4450
(dp4451
g54
(dp4452
g62
I1
ssg63
g4446
sg56
(lp4453
Nasbasbasbag49
(g65
g51
NtRp4454
(dp4455
g54
(dp4456
sg63
g4413
sg56
(lp4457
g49
(g70
g51
NtRp4458
(dp4459
g54
(dp4460
sg63
g4454
sg56
(lp4461
g49
(g50
g51
NtRp4462
(dp4463
g54
(dp4464
g62
I1
ssg63
g4458
sg56
(lp4465
(lp4466
(g3637
(S's\x06\x00\x00\x00Groups'
tRp4467
I00
S'http://www.web2py.com/examples/default/usergroups'
tp4468
a(g3637
(S's\x07\x00\x00\x00Twitter'
tRp4469
I00
S'http://twitter.com/web2py'
tp4470
a(g3637
(S's\t\x00\x00\x00Live chat'
tRp4471
I00
S'http://mibbit.com/?channel=%23web2py&server=irc.mibbit.net'
tp4472
a(g3637
(S's\n\x00\x00\x00User Voice'
tRp4473
I00
S'http://web2py.uservoice.com/'
tp4474
aasbasbasbasbasbasbasbag49
(g65
g51
NtRp4475
(dp4476
g54
(dp4477
sg63
g4302
sg56
(lp4478
g49
(g70
g51
NtRp4479
(dp4480
g54
(dp4481
sg63
g4475
sg56
(lp4482
g49
(g50
g51
NtRp4483
(dp4484
g54
(dp4485
g62
I2
ssg63
g4479
sg56
(lp4486
g49
(g58
g51
NtRp4487
(dp4488
g54
(dp4489
g62
I1
ssg63
Nsg56
(lp4490
g49
(g65
g51
NtRp4491
(dp4492
g54
(dp4493
sg63
g4487
sg56
(lp4494
g49
(g70
g51
NtRp4495
(dp4496
g54
(dp4497
sg63
g4491
sg56
(lp4498
g49
(g50
g51
NtRp4499
(dp4500
g54
(dp4501
g62
I1
ssg63
g4495
sg56
(lp4502
g3637
(S's\x06\x00\x00\x00Web2py'
tRp4503
asbasbasbag49
(g65
g51
NtRp4504
(dp4505
g54
(dp4506
sg63
g4487
sg56
(lp4507
g49
(g70
g51
NtRp4508
(dp4509
g54
(dp4510
sg63
g4504
sg56
(lp4511
g49
(g50
g51
NtRp4512
(dp4513
g54
(dp4514
g62
I1
ssg63
g4508
sg56
(lp4515
I00
asbasbasbag49
(g65
g51
NtRp4516
(dp4517
g54
(dp4518
sg63
g4487
sg56
(lp4519
g49
(g70
g51
NtRp4520
(dp4521
g54
(dp4522
sg63
g4516
sg56
(lp4523
g49
(g50
g51
NtRp4524
(dp4525
g54
(dp4526
g62
I1
ssg63
g4520
sg56
(lp4527
S'http://www.web2py.com'
p4528
asbasbasbag49
(g65
g51
NtRp4529
(dp4530
g54
(dp4531
sg63
g4487
sg56
(lp4532
g49
(g70
g51
NtRp4533
(dp4534
g54
(dp4535
sg63
g4529
sg56
(lp4536
g49
(g50
g51
NtRp4537
(dp4538
g54
(dp4539
g62
I1
ssg63
g4533
sg56
(lp4540
(lp4541
(g3637
(S's\x08\x00\x00\x00Download'
tRp4542
I00
S'http://www.web2py.com/examples/default/download'
tp4543
a(g3637
(S's\x07\x00\x00\x00Support'
tRp4544
I00
S'http://www.web2py.com/examples/default/support'
tp4545
a(g3637
(S's\x0e\x00\x00\x00Quick Examples'
tRp4546
I00
S'http://web2py.com/examples/default/examples'
tp4547
a(g3637
(S's\x03\x00\x00\x00FAQ'
tRp4548
I00
S'http://web2py.com/AlterEgo'
tp4549
a(g3637
(S's\x11\x00\x00\x00Free Applications'
tRp4550
I00
S'http://web2py.com/appliances'
tp4551
a(g3637
(S's\x07\x00\x00\x00Plugins'
tRp4552
I00
S'http://web2py.com/plugins'
tp4553
a(g3637
(S's\x07\x00\x00\x00Recipes'
tRp4554
I00
S'http://web2pyslices.com/'
tp4555
a(g3637
(S's\x04\x00\x00\x00Demo'
tRp4556
I00
S'http://web2py.com/demo_admin'
tp4557
a(g3637
(S's\x08\x00\x00\x00Semantic'
tRp4558
I00
S'http://web2py.com/semantic'
tp4559
a(g3637
(S's\x07\x00\x00\x00Layouts'
tRp4560
I00
S'http://web2py.com/layouts'
tp4561
a(g3637
(S's\x06\x00\x00\x00Videos'
tRp4562
I00
S'http://www.web2py.com/examples/default/videos/'
tp4563
aasbasbasbasbasbasbasbasbasbasbasbasbasbasbasbasbasbasbasbag49
(g65
g51
NtRp4564
(dp4565
g54
(dp4566
sg63
g3113
sg56
(lp4567
g49
(g70
g51
NtRp4568
(dp4569
g54
(dp4570
g74
g75
ssg63
g4564
sg56
(lp4571
S'meta'
p4572
asbag49
(g70
g51
NtRp4573
(dp4574
g54
(dp4575
g81
g82
ssg63
g4564
sg56
(lp4576
S':'
asbag49
(g70
g51
NtRp4577
(dp4578
g54
(dp4579
sg63
g4564
sg56
(lp4580
g49
(g50
g51
NtRp4581
(dp4582
g54
(dp4583
g62
I5
ssg63
g4577
sg56
(lp4584
g49
(g58
g51
NtRp4585
(dp4586
g54
(dp4587
g62
I4
ssg63
Nsg56
(lp4588
g49
(g65
g51
NtRp4589
(dp4590
g54
(dp4591
sg63
g4585
sg56
(lp4592
g49
(g70
g51
NtRp4593
(dp4594
g54
(dp4595
g74
g75
ssg63
g4589
sg56
(lp4596
S'author'
p4597
asbag49
(g70
g51
NtRp4598
(dp4599
g54
(dp4600
g81
g82
ssg63
g4589
sg56
(lp4601
S':'
asbag49
(g70
g51
NtRp4602
(dp4603
g54
(dp4604
sg63
g4589
sg56
(lp4605
g49
(g50
g51
NtRp4606
(dp4607
g54
(dp4608
g62
I4
ssg63
g4602
sg56
(lp4609
S'you'
p4610
asbasbasbag49
(g65
g51
NtRp4611
(dp4612
g54
(dp4613
sg63
g4585
sg56
(lp4614
g49
(g70
g51
NtRp4615
(dp4616
g54
(dp4617
g74
g75
ssg63
g4611
sg56
(lp4618
S'copyright'
p4619
asbag49
(g70
g51
NtRp4620
(dp4621
g54
(dp4622
g81
g82
ssg63
g4611
sg56
(lp4623
S':'
asbag49
(g70
g51
NtRp4624
(dp4625
g54
(dp4626
sg63
g4611
sg56
(lp4627
g49
(g50
g51
NtRp4628
(dp4629
g54
(dp4630
g62
I4
ssg63
g4624
sg56
(lp4631
S'Copyright 2007-2010'
p4632
asbasbasbag49
(g65
g51
NtRp4633
(dp4634
g54
(dp4635
sg63
g4585
sg56
(lp4636
g49
(g70
g51
NtRp4637
(dp4638
g54
(dp4639
g74
g75
ssg63
g4633
sg56
(lp4640
S'description'
p4641
asbag49
(g70
g51
NtRp4642
(dp4643
g54
(dp4644
g81
g82
ssg63
g4633
sg56
(lp4645
S':'
asbag49
(g70
g51
NtRp4646
(dp4647
g54
(dp4648
sg63
g4633
sg56
(lp4649
g49
(g50
g51
NtRp4650
(dp4651
g54
(dp4652
g62
I4
ssg63
g4646
sg56
(lp4653
S'Free and open source full-stack enterprise framework for agile development of fast, scalable, secure and portable database-driven web-based applications. Written and programmable in Python'
p4654
asbasbasbag49
(g65
g51
NtRp4655
(dp4656
g54
(dp4657
sg63
g4585
sg56
(lp4658
g49
(g70
g51
NtRp4659
(dp4660
g54
(dp4661
g74
g75
ssg63
g4655
sg56
(lp4662
S'generator'
p4663
asbag49
(g70
g51
NtRp4664
(dp4665
g54
(dp4666
g81
g82
ssg63
g4655
sg56
(lp4667
S':'
asbag49
(g70
g51
NtRp4668
(dp4669
g54
(dp4670
sg63
g4655
sg56
(lp4671
g49
(g50
g51
NtRp4672
(dp4673
g54
(dp4674
g62
I4
ssg63
g4668
sg56
(lp4675
S'Web2py Enterprise Framework'
p4676
asbasbasbag49
(g65
g51
NtRp4677
(dp4678
g54
(dp4679
sg63
g4585
sg56
(lp4680
g49
(g70
g51
NtRp4681
(dp4682
g54
(dp4683
g74
g75
ssg63
g4677
sg56
(lp4684
S'keywords'
p4685
asbag49
(g70
g51
NtRp4686
(dp4687
g54
(dp4688
g81
g82
ssg63
g4677
sg56
(lp4689
S':'
asbag49
(g70
g51
NtRp4690
(dp4691
g54
(dp4692
sg63
g4677
sg56
(lp4693
g49
(g50
g51
NtRp4694
(dp4695
g54
(dp4696
g62
I4
ssg63
g4690
sg56
(lp4697
S'web2py, python, framework'
p4698
asbasbasbasbasbasbasbag49
(g65
g51
NtRp4699
(dp4700
g54
(dp4701
sg63
g3113
sg56
(lp4702
g49
(g70
g51
NtRp4703
(dp4704
g54
(dp4705
g74
g75
ssg63
g4699
sg56
(lp4706
S'postprocessing'
p4707
asbag49
(g70
g51
NtRp4708
(dp4709
g54
(dp4710
g81
g82
ssg63
g4699
sg56
(lp4711
S':'
asbag49
(g70
g51
NtRp4712
(dp4713
g54
(dp4714
sg63
g4699
sg56
(lp4715
g49
(g50
g51
NtRp4716
(dp4717
g54
(dp4718
g62
I5
ssg63
g4712
sg56
(lp4719
g49
(g58
g51
NtRp4720
(dp4721
g54
(dp4722
g62
I4
ssg63
Nsg56
(lp4723
sbasbasbasbag49
(g65
g51
NtRp4724
(dp4725
g54
(dp4726
sg63
g3113
sg56
(lp4727
g49
(g70
g51
NtRp4728
(dp4729
g54
(dp4730
g74
g75
ssg63
g4724
sg56
(lp4731
S'session_file'
p4732
asbag49
(g70
g51
NtRp4733
(dp4734
g54
(dp4735
g81
g82
ssg63
g4724
sg56
(lp4736
S':'
asbag49
(g70
g51
NtRp4737
(dp4738
g54
(dp4739
sg63
g4724
sg56
(lp4740
g49
(g50
g51
NtRp4741
(dp4742
g54
(dp4743
g62
I5
ssg63
g4737
sg56
(lp4744
S"<open file 'C:\\Users\\avjain\\Downloads\\web2py\\applications\\Golf_2\\sessions\\127.0.0.1-b2abb96c-79bd-455e-bf11-447a7eebe1ee', mode 'rb+' at 0x05E8A530>"
p4745
asbasbasbag49
(g65
g51
NtRp4746
(dp4747
g54
(dp4748
sg63
g3113
sg56
(lp4749
g49
(g70
g51
NtRp4750
(dp4751
g54
(dp4752
g74
g75
ssg63
g4746
sg56
(lp4753
S'session_filename'
p4754
asbag49
(g70
g51
NtRp4755
(dp4756
g54
(dp4757
g81
g82
ssg63
g4746
sg56
(lp4758
S':'
asbag49
(g70
g51
NtRp4759
(dp4760
g54
(dp4761
sg63
g4746
sg56
(lp4762
g49
(g50
g51
NtRp4763
(dp4764
g54
(dp4765
g62
I5
ssg63
g4759
sg56
(lp4766
S'C:\\Users\\avjain\\Downloads\\web2py\\applications\\Golf_2\\sessions\\127.0.0.1-b2abb96c-79bd-455e-bf11-447a7eebe1ee'
p4767
asbasbasbag49
(g65
g51
NtRp4768
(dp4769
g54
(dp4770
sg63
g3113
sg56
(lp4771
g49
(g70
g51
NtRp4772
(dp4773
g54
(dp4774
g74
g75
ssg63
g4768
sg56
(lp4775
S'session_id'
p4776
asbag49
(g70
g51
NtRp4777
(dp4778
g54
(dp4779
g81
g82
ssg63
g4768
sg56
(lp4780
S':'
asbag49
(g70
g51
NtRp4781
(dp4782
g54
(dp4783
sg63
g4768
sg56
(lp4784
g49
(g50
g51
NtRp4785
(dp4786
g54
(dp4787
g62
I5
ssg63
g4781
sg56
(lp4788
S'127.0.0.1-b2abb96c-79bd-455e-bf11-447a7eebe1ee'
p4789
asbasbasbag49
(g65
g51
NtRp4790
(dp4791
g54
(dp4792
sg63
g3113
sg56
(lp4793
g49
(g70
g51
NtRp4794
(dp4795
g54
(dp4796
g74
g75
ssg63
g4790
sg56
(lp4797
S'session_id_name'
p4798
asbag49
(g70
g51
NtRp4799
(dp4800
g54
(dp4801
g81
g82
ssg63
g4790
sg56
(lp4802
S':'
asbag49
(g70
g51
NtRp4803
(dp4804
g54
(dp4805
sg63
g4790
sg56
(lp4806
g49
(g50
g51
NtRp4807
(dp4808
g54
(dp4809
g62
I5
ssg63
g4803
sg56
(lp4810
g3170
asbasbasbag49
(g65
g51
NtRp4811
(dp4812
g54
(dp4813
sg63
g3113
sg56
(lp4814
g49
(g70
g51
NtRp4815
(dp4816
g54
(dp4817
g74
g75
ssg63
g4811
sg56
(lp4818
S'session_locked'
p4819
asbag49
(g70
g51
NtRp4820
(dp4821
g54
(dp4822
g81
g82
ssg63
g4811
sg56
(lp4823
S':'
asbag49
(g70
g51
NtRp4824
(dp4825
g54
(dp4826
sg63
g4811
sg56
(lp4827
g49
(g50
g51
NtRp4828
(dp4829
g54
(dp4830
g62
I5
ssg63
g4824
sg56
(lp4831
g1631
asbasbasbag49
(g65
g51
NtRp4832
(dp4833
g54
(dp4834
sg63
g3113
sg56
(lp4835
g49
(g70
g51
NtRp4836
(dp4837
g54
(dp4838
g74
g75
ssg63
g4832
sg56
(lp4839
S'session_new'
p4840
asbag49
(g70
g51
NtRp4841
(dp4842
g54
(dp4843
g81
g82
ssg63
g4832
sg56
(lp4844
S':'
asbag49
(g70
g51
NtRp4845
(dp4846
g54
(dp4847
sg63
g4832
sg56
(lp4848
g49
(g50
g51
NtRp4849
(dp4850
g54
(dp4851
g62
I5
ssg63
g4845
sg56
(lp4852
g92
asbasbasbag49
(g65
g51
NtRp4853
(dp4854
g54
(dp4855
sg63
g3113
sg56
(lp4856
g49
(g70
g51
NtRp4857
(dp4858
g54
(dp4859
g74
g75
ssg63
g4853
sg56
(lp4860
S'status'
p4861
asbag49
(g70
g51
NtRp4862
(dp4863
g54
(dp4864
g81
g82
ssg63
g4853
sg56
(lp4865
S':'
asbag49
(g70
g51
NtRp4866
(dp4867
g54
(dp4868
sg63
g4853
sg56
(lp4869
g49
(g50
g51
NtRp4870
(dp4871
g54
(dp4872
g62
I5
ssg63
g4866
sg56
(lp4873
S'200'
p4874
asbasbasbag49
(g65
g51
NtRp4875
(dp4876
g54
(dp4877
sg63
g3113
sg56
(lp4878
g49
(g70
g51
NtRp4879
(dp4880
g54
(dp4881
g74
g75
ssg63
g4875
sg56
(lp4882
S'subtitle'
p4883
asbag49
(g70
g51
NtRp4884
(dp4885
g54
(dp4886
g81
g82
ssg63
g4875
sg56
(lp4887
S':'
asbag49
(g70
g51
NtRp4888
(dp4889
g54
(dp4890
sg63
g4875
sg56
(lp4891
g49
(g50
g51
NtRp4892
(dp4893
g54
(dp4894
g62
I5
ssg63
g4888
sg56
(lp4895
g3637
(S's\r\x00\x00\x00customize me!'
tRp4896
asbasbasbag49
(g65
g51
NtRp4897
(dp4898
g54
(dp4899
sg63
g3113
sg56
(lp4900
g49
(g70
g51
NtRp4901
(dp4902
g54
(dp4903
g74
g75
ssg63
g4897
sg56
(lp4904
S'title'
p4905
asbag49
(g70
g51
NtRp4906
(dp4907
g54
(dp4908
g81
g82
ssg63
g4897
sg56
(lp4909
S':'
asbag49
(g70
g51
NtRp4910
(dp4911
g54
(dp4912
sg63
g4897
sg56
(lp4913
g49
(g50
g51
NtRp4914
(dp4915
g54
(dp4916
g62
I5
ssg63
g4910
sg56
(lp4917
g114
asbasbasbag49
(g65
g51
NtRp4918
(dp4919
g54
(dp4920
sg63
g3113
sg56
(lp4921
g49
(g70
g51
NtRp4922
(dp4923
g54
(dp4924
g74
g75
ssg63
g4918
sg56
(lp4925
g2316
asbag49
(g70
g51
NtRp4926
(dp4927
g54
(dp4928
g81
g82
ssg63
g4918
sg56
(lp4929
S':'
asbag49
(g70
g51
NtRp4930
(dp4931
g54
(dp4932
sg63
g4918
sg56
(lp4933
g49
(g50
g51
NtRp4934
(dp4935
g54
(dp4936
g62
I5
ssg63
g4930
sg56
(lp4937
g2329
asbasbasbag49
(g65
g51
NtRp4938
(dp4939
g54
(dp4940
sg63
g3113
sg56
(lp4941
g49
(g70
g51
NtRp4942
(dp4943
g54
(dp4944
g74
g75
ssg63
g4938
sg56
(lp4945
S'view'
p4946
asbag49
(g70
g51
NtRp4947
(dp4948
g54
(dp4949
g81
g82
ssg63
g4938
sg56
(lp4950
S':'
asbag49
(g70
g51
NtRp4951
(dp4952
g54
(dp4953
sg63
g4938
sg56
(lp4954
g49
(g50
g51
NtRp4955
(dp4956
g54
(dp4957
g62
I5
ssg63
g4951
sg56
(lp4958
S'default/settings.html'
p4959
asbasbasbasbasbsS'locals'
p4960
(dp4961
S'i'
S'0'
sS'self'
p4962
S'<gluon.dal.Rows object at 0x029541B0>'
p4963
sssS'traceback'
p4964
S'Traceback (most recent call last):\n  File "gluon/restricted.py", line 205, in restricted\n  File "C:\\Users\\avjain\\Downloads\\web2py\\applications\\Golf_2\\controllers/default.py", line 98, in <module>\n  File "gluon/globals.py", line 173, in <lambda>\n  File "C:\\Users\\avjain\\Downloads\\web2py\\applications\\Golf_2\\controllers/default.py", line 23, in settings\n  File "gluon/dal.py", line 7755, in __getitem__\nIndexError: list index out of range\n'
p4965
s.